ARM GAS  C:\Users\28470\AppData\Local\Temp\ccvYo0xZ.s 			page 1


   1              		.cpu cortex-m3
   2              		.arch armv7-m
   3              		.fpu softvfp
   4              		.eabi_attribute 20, 1
   5              		.eabi_attribute 21, 1
   6              		.eabi_attribute 23, 3
   7              		.eabi_attribute 24, 1
   8              		.eabi_attribute 25, 1
   9              		.eabi_attribute 26, 1
  10              		.eabi_attribute 30, 1
  11              		.eabi_attribute 34, 1
  12              		.eabi_attribute 18, 4
  13              		.file	"stm32f10x_rcc.c"
  14              		.text
  15              	.Ltext0:
  16              		.cfi_sections	.debug_frame
  17              		.section	.text.RCC_DeInit,"ax",%progbits
  18              		.align	1
  19              		.global	RCC_DeInit
  20              		.syntax unified
  21              		.thumb
  22              		.thumb_func
  24              	RCC_DeInit:
  25              	.LFB29:
  26              		.file 1 "../stm32f10x_fwlib/src/stm32f10x_rcc.c"
   1:../stm32f10x_fwlib/src/stm32f10x_rcc.c **** /**
   2:../stm32f10x_fwlib/src/stm32f10x_rcc.c ****   ******************************************************************************
   3:../stm32f10x_fwlib/src/stm32f10x_rcc.c ****   * @file    stm32f10x_rcc.c
   4:../stm32f10x_fwlib/src/stm32f10x_rcc.c ****   * @author  MCD Application Team
   5:../stm32f10x_fwlib/src/stm32f10x_rcc.c ****   * @version V3.5.0
   6:../stm32f10x_fwlib/src/stm32f10x_rcc.c ****   * @date    11-March-2011
   7:../stm32f10x_fwlib/src/stm32f10x_rcc.c ****   * @brief   This file provides all the RCC firmware functions.
   8:../stm32f10x_fwlib/src/stm32f10x_rcc.c ****   ******************************************************************************
   9:../stm32f10x_fwlib/src/stm32f10x_rcc.c ****   * @attention
  10:../stm32f10x_fwlib/src/stm32f10x_rcc.c ****   *
  11:../stm32f10x_fwlib/src/stm32f10x_rcc.c ****   * THE PRESENT FIRMWARE WHICH IS FOR GUIDANCE ONLY AIMS AT PROVIDING CUSTOMERS
  12:../stm32f10x_fwlib/src/stm32f10x_rcc.c ****   * WITH CODING INFORMATION REGARDING THEIR PRODUCTS IN ORDER FOR THEM TO SAVE
  13:../stm32f10x_fwlib/src/stm32f10x_rcc.c ****   * TIME. AS A RESULT, STMICROELECTRONICS SHALL NOT BE HELD LIABLE FOR ANY
  14:../stm32f10x_fwlib/src/stm32f10x_rcc.c ****   * DIRECT, INDIRECT OR CONSEQUENTIAL DAMAGES WITH RESPECT TO ANY CLAIMS ARISING
  15:../stm32f10x_fwlib/src/stm32f10x_rcc.c ****   * FROM THE CONTENT OF SUCH FIRMWARE AND/OR THE USE MADE BY CUSTOMERS OF THE
  16:../stm32f10x_fwlib/src/stm32f10x_rcc.c ****   * CODING INFORMATION CONTAINED HEREIN IN CONNECTION WITH THEIR PRODUCTS.
  17:../stm32f10x_fwlib/src/stm32f10x_rcc.c ****   *
  18:../stm32f10x_fwlib/src/stm32f10x_rcc.c ****   * <h2><center>&copy; COPYRIGHT 2011 STMicroelectronics</center></h2>
  19:../stm32f10x_fwlib/src/stm32f10x_rcc.c ****   ******************************************************************************
  20:../stm32f10x_fwlib/src/stm32f10x_rcc.c ****   */
  21:../stm32f10x_fwlib/src/stm32f10x_rcc.c **** 
  22:../stm32f10x_fwlib/src/stm32f10x_rcc.c **** /* Includes ------------------------------------------------------------------*/
  23:../stm32f10x_fwlib/src/stm32f10x_rcc.c **** #include "stm32f10x_rcc.h"
  24:../stm32f10x_fwlib/src/stm32f10x_rcc.c **** 
  25:../stm32f10x_fwlib/src/stm32f10x_rcc.c **** /** @addtogroup STM32F10x_StdPeriph_Driver
  26:../stm32f10x_fwlib/src/stm32f10x_rcc.c ****   * @{
  27:../stm32f10x_fwlib/src/stm32f10x_rcc.c ****   */
  28:../stm32f10x_fwlib/src/stm32f10x_rcc.c **** 
  29:../stm32f10x_fwlib/src/stm32f10x_rcc.c **** /** @defgroup RCC 
  30:../stm32f10x_fwlib/src/stm32f10x_rcc.c ****   * @brief RCC driver modules
  31:../stm32f10x_fwlib/src/stm32f10x_rcc.c ****   * @{
  32:../stm32f10x_fwlib/src/stm32f10x_rcc.c ****   */ 
ARM GAS  C:\Users\28470\AppData\Local\Temp\ccvYo0xZ.s 			page 2


  33:../stm32f10x_fwlib/src/stm32f10x_rcc.c **** 
  34:../stm32f10x_fwlib/src/stm32f10x_rcc.c **** /** @defgroup RCC_Private_TypesDefinitions
  35:../stm32f10x_fwlib/src/stm32f10x_rcc.c ****   * @{
  36:../stm32f10x_fwlib/src/stm32f10x_rcc.c ****   */
  37:../stm32f10x_fwlib/src/stm32f10x_rcc.c **** 
  38:../stm32f10x_fwlib/src/stm32f10x_rcc.c **** /**
  39:../stm32f10x_fwlib/src/stm32f10x_rcc.c ****   * @}
  40:../stm32f10x_fwlib/src/stm32f10x_rcc.c ****   */
  41:../stm32f10x_fwlib/src/stm32f10x_rcc.c **** 
  42:../stm32f10x_fwlib/src/stm32f10x_rcc.c **** /** @defgroup RCC_Private_Defines
  43:../stm32f10x_fwlib/src/stm32f10x_rcc.c ****   * @{
  44:../stm32f10x_fwlib/src/stm32f10x_rcc.c ****   */
  45:../stm32f10x_fwlib/src/stm32f10x_rcc.c **** 
  46:../stm32f10x_fwlib/src/stm32f10x_rcc.c **** /* ------------ RCC registers bit address in the alias region ----------- */
  47:../stm32f10x_fwlib/src/stm32f10x_rcc.c **** #define RCC_OFFSET                (RCC_BASE - PERIPH_BASE)
  48:../stm32f10x_fwlib/src/stm32f10x_rcc.c **** 
  49:../stm32f10x_fwlib/src/stm32f10x_rcc.c **** /* --- CR Register ---*/
  50:../stm32f10x_fwlib/src/stm32f10x_rcc.c **** 
  51:../stm32f10x_fwlib/src/stm32f10x_rcc.c **** /* Alias word address of HSION bit */
  52:../stm32f10x_fwlib/src/stm32f10x_rcc.c **** #define CR_OFFSET                 (RCC_OFFSET + 0x00)
  53:../stm32f10x_fwlib/src/stm32f10x_rcc.c **** #define HSION_BitNumber           0x00
  54:../stm32f10x_fwlib/src/stm32f10x_rcc.c **** #define CR_HSION_BB               (PERIPH_BB_BASE + (CR_OFFSET * 32) + (HSION_BitNumber * 4))
  55:../stm32f10x_fwlib/src/stm32f10x_rcc.c **** 
  56:../stm32f10x_fwlib/src/stm32f10x_rcc.c **** /* Alias word address of PLLON bit */
  57:../stm32f10x_fwlib/src/stm32f10x_rcc.c **** #define PLLON_BitNumber           0x18
  58:../stm32f10x_fwlib/src/stm32f10x_rcc.c **** #define CR_PLLON_BB               (PERIPH_BB_BASE + (CR_OFFSET * 32) + (PLLON_BitNumber * 4))
  59:../stm32f10x_fwlib/src/stm32f10x_rcc.c **** 
  60:../stm32f10x_fwlib/src/stm32f10x_rcc.c **** #ifdef STM32F10X_CL
  61:../stm32f10x_fwlib/src/stm32f10x_rcc.c ****  /* Alias word address of PLL2ON bit */
  62:../stm32f10x_fwlib/src/stm32f10x_rcc.c ****  #define PLL2ON_BitNumber          0x1A
  63:../stm32f10x_fwlib/src/stm32f10x_rcc.c ****  #define CR_PLL2ON_BB              (PERIPH_BB_BASE + (CR_OFFSET * 32) + (PLL2ON_BitNumber * 4))
  64:../stm32f10x_fwlib/src/stm32f10x_rcc.c **** 
  65:../stm32f10x_fwlib/src/stm32f10x_rcc.c ****  /* Alias word address of PLL3ON bit */
  66:../stm32f10x_fwlib/src/stm32f10x_rcc.c ****  #define PLL3ON_BitNumber          0x1C
  67:../stm32f10x_fwlib/src/stm32f10x_rcc.c ****  #define CR_PLL3ON_BB              (PERIPH_BB_BASE + (CR_OFFSET * 32) + (PLL3ON_BitNumber * 4))
  68:../stm32f10x_fwlib/src/stm32f10x_rcc.c **** #endif /* STM32F10X_CL */ 
  69:../stm32f10x_fwlib/src/stm32f10x_rcc.c **** 
  70:../stm32f10x_fwlib/src/stm32f10x_rcc.c **** /* Alias word address of CSSON bit */
  71:../stm32f10x_fwlib/src/stm32f10x_rcc.c **** #define CSSON_BitNumber           0x13
  72:../stm32f10x_fwlib/src/stm32f10x_rcc.c **** #define CR_CSSON_BB               (PERIPH_BB_BASE + (CR_OFFSET * 32) + (CSSON_BitNumber * 4))
  73:../stm32f10x_fwlib/src/stm32f10x_rcc.c **** 
  74:../stm32f10x_fwlib/src/stm32f10x_rcc.c **** /* --- CFGR Register ---*/
  75:../stm32f10x_fwlib/src/stm32f10x_rcc.c **** 
  76:../stm32f10x_fwlib/src/stm32f10x_rcc.c **** /* Alias word address of USBPRE bit */
  77:../stm32f10x_fwlib/src/stm32f10x_rcc.c **** #define CFGR_OFFSET               (RCC_OFFSET + 0x04)
  78:../stm32f10x_fwlib/src/stm32f10x_rcc.c **** 
  79:../stm32f10x_fwlib/src/stm32f10x_rcc.c **** #ifndef STM32F10X_CL
  80:../stm32f10x_fwlib/src/stm32f10x_rcc.c ****  #define USBPRE_BitNumber          0x16
  81:../stm32f10x_fwlib/src/stm32f10x_rcc.c ****  #define CFGR_USBPRE_BB            (PERIPH_BB_BASE + (CFGR_OFFSET * 32) + (USBPRE_BitNumber * 4))
  82:../stm32f10x_fwlib/src/stm32f10x_rcc.c **** #else
  83:../stm32f10x_fwlib/src/stm32f10x_rcc.c ****  #define OTGFSPRE_BitNumber        0x16
  84:../stm32f10x_fwlib/src/stm32f10x_rcc.c ****  #define CFGR_OTGFSPRE_BB          (PERIPH_BB_BASE + (CFGR_OFFSET * 32) + (OTGFSPRE_BitNumber * 4))
  85:../stm32f10x_fwlib/src/stm32f10x_rcc.c **** #endif /* STM32F10X_CL */ 
  86:../stm32f10x_fwlib/src/stm32f10x_rcc.c **** 
  87:../stm32f10x_fwlib/src/stm32f10x_rcc.c **** /* --- BDCR Register ---*/
  88:../stm32f10x_fwlib/src/stm32f10x_rcc.c **** 
  89:../stm32f10x_fwlib/src/stm32f10x_rcc.c **** /* Alias word address of RTCEN bit */
ARM GAS  C:\Users\28470\AppData\Local\Temp\ccvYo0xZ.s 			page 3


  90:../stm32f10x_fwlib/src/stm32f10x_rcc.c **** #define BDCR_OFFSET               (RCC_OFFSET + 0x20)
  91:../stm32f10x_fwlib/src/stm32f10x_rcc.c **** #define RTCEN_BitNumber           0x0F
  92:../stm32f10x_fwlib/src/stm32f10x_rcc.c **** #define BDCR_RTCEN_BB             (PERIPH_BB_BASE + (BDCR_OFFSET * 32) + (RTCEN_BitNumber * 4))
  93:../stm32f10x_fwlib/src/stm32f10x_rcc.c **** 
  94:../stm32f10x_fwlib/src/stm32f10x_rcc.c **** /* Alias word address of BDRST bit */
  95:../stm32f10x_fwlib/src/stm32f10x_rcc.c **** #define BDRST_BitNumber           0x10
  96:../stm32f10x_fwlib/src/stm32f10x_rcc.c **** #define BDCR_BDRST_BB             (PERIPH_BB_BASE + (BDCR_OFFSET * 32) + (BDRST_BitNumber * 4))
  97:../stm32f10x_fwlib/src/stm32f10x_rcc.c **** 
  98:../stm32f10x_fwlib/src/stm32f10x_rcc.c **** /* --- CSR Register ---*/
  99:../stm32f10x_fwlib/src/stm32f10x_rcc.c **** 
 100:../stm32f10x_fwlib/src/stm32f10x_rcc.c **** /* Alias word address of LSION bit */
 101:../stm32f10x_fwlib/src/stm32f10x_rcc.c **** #define CSR_OFFSET                (RCC_OFFSET + 0x24)
 102:../stm32f10x_fwlib/src/stm32f10x_rcc.c **** #define LSION_BitNumber           0x00
 103:../stm32f10x_fwlib/src/stm32f10x_rcc.c **** #define CSR_LSION_BB              (PERIPH_BB_BASE + (CSR_OFFSET * 32) + (LSION_BitNumber * 4))
 104:../stm32f10x_fwlib/src/stm32f10x_rcc.c **** 
 105:../stm32f10x_fwlib/src/stm32f10x_rcc.c **** #ifdef STM32F10X_CL
 106:../stm32f10x_fwlib/src/stm32f10x_rcc.c **** /* --- CFGR2 Register ---*/
 107:../stm32f10x_fwlib/src/stm32f10x_rcc.c **** 
 108:../stm32f10x_fwlib/src/stm32f10x_rcc.c ****  /* Alias word address of I2S2SRC bit */
 109:../stm32f10x_fwlib/src/stm32f10x_rcc.c ****  #define CFGR2_OFFSET              (RCC_OFFSET + 0x2C)
 110:../stm32f10x_fwlib/src/stm32f10x_rcc.c ****  #define I2S2SRC_BitNumber         0x11
 111:../stm32f10x_fwlib/src/stm32f10x_rcc.c ****  #define CFGR2_I2S2SRC_BB          (PERIPH_BB_BASE + (CFGR2_OFFSET * 32) + (I2S2SRC_BitNumber * 4))
 112:../stm32f10x_fwlib/src/stm32f10x_rcc.c **** 
 113:../stm32f10x_fwlib/src/stm32f10x_rcc.c ****  /* Alias word address of I2S3SRC bit */
 114:../stm32f10x_fwlib/src/stm32f10x_rcc.c ****  #define I2S3SRC_BitNumber         0x12
 115:../stm32f10x_fwlib/src/stm32f10x_rcc.c ****  #define CFGR2_I2S3SRC_BB          (PERIPH_BB_BASE + (CFGR2_OFFSET * 32) + (I2S3SRC_BitNumber * 4))
 116:../stm32f10x_fwlib/src/stm32f10x_rcc.c **** #endif /* STM32F10X_CL */
 117:../stm32f10x_fwlib/src/stm32f10x_rcc.c **** 
 118:../stm32f10x_fwlib/src/stm32f10x_rcc.c **** /* ---------------------- RCC registers bit mask ------------------------ */
 119:../stm32f10x_fwlib/src/stm32f10x_rcc.c **** 
 120:../stm32f10x_fwlib/src/stm32f10x_rcc.c **** /* CR register bit mask */
 121:../stm32f10x_fwlib/src/stm32f10x_rcc.c **** #define CR_HSEBYP_Reset           ((uint32_t)0xFFFBFFFF)
 122:../stm32f10x_fwlib/src/stm32f10x_rcc.c **** #define CR_HSEBYP_Set             ((uint32_t)0x00040000)
 123:../stm32f10x_fwlib/src/stm32f10x_rcc.c **** #define CR_HSEON_Reset            ((uint32_t)0xFFFEFFFF)
 124:../stm32f10x_fwlib/src/stm32f10x_rcc.c **** #define CR_HSEON_Set              ((uint32_t)0x00010000)
 125:../stm32f10x_fwlib/src/stm32f10x_rcc.c **** #define CR_HSITRIM_Mask           ((uint32_t)0xFFFFFF07)
 126:../stm32f10x_fwlib/src/stm32f10x_rcc.c **** 
 127:../stm32f10x_fwlib/src/stm32f10x_rcc.c **** /* CFGR register bit mask */
 128:../stm32f10x_fwlib/src/stm32f10x_rcc.c **** #if defined (STM32F10X_LD_VL) || defined (STM32F10X_MD_VL) || defined (STM32F10X_HD_VL) || defined 
 129:../stm32f10x_fwlib/src/stm32f10x_rcc.c ****  #define CFGR_PLL_Mask            ((uint32_t)0xFFC2FFFF)
 130:../stm32f10x_fwlib/src/stm32f10x_rcc.c **** #else
 131:../stm32f10x_fwlib/src/stm32f10x_rcc.c ****  #define CFGR_PLL_Mask            ((uint32_t)0xFFC0FFFF)
 132:../stm32f10x_fwlib/src/stm32f10x_rcc.c **** #endif /* STM32F10X_CL */ 
 133:../stm32f10x_fwlib/src/stm32f10x_rcc.c **** 
 134:../stm32f10x_fwlib/src/stm32f10x_rcc.c **** #define CFGR_PLLMull_Mask         ((uint32_t)0x003C0000)
 135:../stm32f10x_fwlib/src/stm32f10x_rcc.c **** #define CFGR_PLLSRC_Mask          ((uint32_t)0x00010000)
 136:../stm32f10x_fwlib/src/stm32f10x_rcc.c **** #define CFGR_PLLXTPRE_Mask        ((uint32_t)0x00020000)
 137:../stm32f10x_fwlib/src/stm32f10x_rcc.c **** #define CFGR_SWS_Mask             ((uint32_t)0x0000000C)
 138:../stm32f10x_fwlib/src/stm32f10x_rcc.c **** #define CFGR_SW_Mask              ((uint32_t)0xFFFFFFFC)
 139:../stm32f10x_fwlib/src/stm32f10x_rcc.c **** #define CFGR_HPRE_Reset_Mask      ((uint32_t)0xFFFFFF0F)
 140:../stm32f10x_fwlib/src/stm32f10x_rcc.c **** #define CFGR_HPRE_Set_Mask        ((uint32_t)0x000000F0)
 141:../stm32f10x_fwlib/src/stm32f10x_rcc.c **** #define CFGR_PPRE1_Reset_Mask     ((uint32_t)0xFFFFF8FF)
 142:../stm32f10x_fwlib/src/stm32f10x_rcc.c **** #define CFGR_PPRE1_Set_Mask       ((uint32_t)0x00000700)
 143:../stm32f10x_fwlib/src/stm32f10x_rcc.c **** #define CFGR_PPRE2_Reset_Mask     ((uint32_t)0xFFFFC7FF)
 144:../stm32f10x_fwlib/src/stm32f10x_rcc.c **** #define CFGR_PPRE2_Set_Mask       ((uint32_t)0x00003800)
 145:../stm32f10x_fwlib/src/stm32f10x_rcc.c **** #define CFGR_ADCPRE_Reset_Mask    ((uint32_t)0xFFFF3FFF)
 146:../stm32f10x_fwlib/src/stm32f10x_rcc.c **** #define CFGR_ADCPRE_Set_Mask      ((uint32_t)0x0000C000)
ARM GAS  C:\Users\28470\AppData\Local\Temp\ccvYo0xZ.s 			page 4


 147:../stm32f10x_fwlib/src/stm32f10x_rcc.c **** 
 148:../stm32f10x_fwlib/src/stm32f10x_rcc.c **** /* CSR register bit mask */
 149:../stm32f10x_fwlib/src/stm32f10x_rcc.c **** #define CSR_RMVF_Set              ((uint32_t)0x01000000)
 150:../stm32f10x_fwlib/src/stm32f10x_rcc.c **** 
 151:../stm32f10x_fwlib/src/stm32f10x_rcc.c **** #if defined (STM32F10X_LD_VL) || defined (STM32F10X_MD_VL) || defined (STM32F10X_HD_VL) || defined 
 152:../stm32f10x_fwlib/src/stm32f10x_rcc.c **** /* CFGR2 register bit mask */
 153:../stm32f10x_fwlib/src/stm32f10x_rcc.c ****  #define CFGR2_PREDIV1SRC         ((uint32_t)0x00010000)
 154:../stm32f10x_fwlib/src/stm32f10x_rcc.c ****  #define CFGR2_PREDIV1            ((uint32_t)0x0000000F)
 155:../stm32f10x_fwlib/src/stm32f10x_rcc.c **** #endif
 156:../stm32f10x_fwlib/src/stm32f10x_rcc.c **** #ifdef STM32F10X_CL
 157:../stm32f10x_fwlib/src/stm32f10x_rcc.c ****  #define CFGR2_PREDIV2            ((uint32_t)0x000000F0)
 158:../stm32f10x_fwlib/src/stm32f10x_rcc.c ****  #define CFGR2_PLL2MUL            ((uint32_t)0x00000F00)
 159:../stm32f10x_fwlib/src/stm32f10x_rcc.c ****  #define CFGR2_PLL3MUL            ((uint32_t)0x0000F000)
 160:../stm32f10x_fwlib/src/stm32f10x_rcc.c **** #endif /* STM32F10X_CL */ 
 161:../stm32f10x_fwlib/src/stm32f10x_rcc.c **** 
 162:../stm32f10x_fwlib/src/stm32f10x_rcc.c **** /* RCC Flag Mask */
 163:../stm32f10x_fwlib/src/stm32f10x_rcc.c **** #define FLAG_Mask                 ((uint8_t)0x1F)
 164:../stm32f10x_fwlib/src/stm32f10x_rcc.c **** 
 165:../stm32f10x_fwlib/src/stm32f10x_rcc.c **** /* CIR register byte 2 (Bits[15:8]) base address */
 166:../stm32f10x_fwlib/src/stm32f10x_rcc.c **** #define CIR_BYTE2_ADDRESS         ((uint32_t)0x40021009)
 167:../stm32f10x_fwlib/src/stm32f10x_rcc.c **** 
 168:../stm32f10x_fwlib/src/stm32f10x_rcc.c **** /* CIR register byte 3 (Bits[23:16]) base address */
 169:../stm32f10x_fwlib/src/stm32f10x_rcc.c **** #define CIR_BYTE3_ADDRESS         ((uint32_t)0x4002100A)
 170:../stm32f10x_fwlib/src/stm32f10x_rcc.c **** 
 171:../stm32f10x_fwlib/src/stm32f10x_rcc.c **** /* CFGR register byte 4 (Bits[31:24]) base address */
 172:../stm32f10x_fwlib/src/stm32f10x_rcc.c **** #define CFGR_BYTE4_ADDRESS        ((uint32_t)0x40021007)
 173:../stm32f10x_fwlib/src/stm32f10x_rcc.c **** 
 174:../stm32f10x_fwlib/src/stm32f10x_rcc.c **** /* BDCR register base address */
 175:../stm32f10x_fwlib/src/stm32f10x_rcc.c **** #define BDCR_ADDRESS              (PERIPH_BASE + BDCR_OFFSET)
 176:../stm32f10x_fwlib/src/stm32f10x_rcc.c **** 
 177:../stm32f10x_fwlib/src/stm32f10x_rcc.c **** /**
 178:../stm32f10x_fwlib/src/stm32f10x_rcc.c ****   * @}
 179:../stm32f10x_fwlib/src/stm32f10x_rcc.c ****   */ 
 180:../stm32f10x_fwlib/src/stm32f10x_rcc.c **** 
 181:../stm32f10x_fwlib/src/stm32f10x_rcc.c **** /** @defgroup RCC_Private_Macros
 182:../stm32f10x_fwlib/src/stm32f10x_rcc.c ****   * @{
 183:../stm32f10x_fwlib/src/stm32f10x_rcc.c ****   */ 
 184:../stm32f10x_fwlib/src/stm32f10x_rcc.c **** 
 185:../stm32f10x_fwlib/src/stm32f10x_rcc.c **** /**
 186:../stm32f10x_fwlib/src/stm32f10x_rcc.c ****   * @}
 187:../stm32f10x_fwlib/src/stm32f10x_rcc.c ****   */ 
 188:../stm32f10x_fwlib/src/stm32f10x_rcc.c **** 
 189:../stm32f10x_fwlib/src/stm32f10x_rcc.c **** /** @defgroup RCC_Private_Variables
 190:../stm32f10x_fwlib/src/stm32f10x_rcc.c ****   * @{
 191:../stm32f10x_fwlib/src/stm32f10x_rcc.c ****   */ 
 192:../stm32f10x_fwlib/src/stm32f10x_rcc.c **** 
 193:../stm32f10x_fwlib/src/stm32f10x_rcc.c **** static __I uint8_t APBAHBPrescTable[16] = {0, 0, 0, 0, 1, 2, 3, 4, 1, 2, 3, 4, 6, 7, 8, 9};
 194:../stm32f10x_fwlib/src/stm32f10x_rcc.c **** static __I uint8_t ADCPrescTable[4] = {2, 4, 6, 8};
 195:../stm32f10x_fwlib/src/stm32f10x_rcc.c **** 
 196:../stm32f10x_fwlib/src/stm32f10x_rcc.c **** /**
 197:../stm32f10x_fwlib/src/stm32f10x_rcc.c ****   * @}
 198:../stm32f10x_fwlib/src/stm32f10x_rcc.c ****   */
 199:../stm32f10x_fwlib/src/stm32f10x_rcc.c **** 
 200:../stm32f10x_fwlib/src/stm32f10x_rcc.c **** /** @defgroup RCC_Private_FunctionPrototypes
 201:../stm32f10x_fwlib/src/stm32f10x_rcc.c ****   * @{
 202:../stm32f10x_fwlib/src/stm32f10x_rcc.c ****   */
 203:../stm32f10x_fwlib/src/stm32f10x_rcc.c **** 
ARM GAS  C:\Users\28470\AppData\Local\Temp\ccvYo0xZ.s 			page 5


 204:../stm32f10x_fwlib/src/stm32f10x_rcc.c **** /**
 205:../stm32f10x_fwlib/src/stm32f10x_rcc.c ****   * @}
 206:../stm32f10x_fwlib/src/stm32f10x_rcc.c ****   */
 207:../stm32f10x_fwlib/src/stm32f10x_rcc.c **** 
 208:../stm32f10x_fwlib/src/stm32f10x_rcc.c **** /** @defgroup RCC_Private_Functions
 209:../stm32f10x_fwlib/src/stm32f10x_rcc.c ****   * @{
 210:../stm32f10x_fwlib/src/stm32f10x_rcc.c ****   */
 211:../stm32f10x_fwlib/src/stm32f10x_rcc.c **** 
 212:../stm32f10x_fwlib/src/stm32f10x_rcc.c **** /**
 213:../stm32f10x_fwlib/src/stm32f10x_rcc.c ****   * @brief  Resets the RCC clock configuration to the default reset state.
 214:../stm32f10x_fwlib/src/stm32f10x_rcc.c ****   * @param  None
 215:../stm32f10x_fwlib/src/stm32f10x_rcc.c ****   * @retval None
 216:../stm32f10x_fwlib/src/stm32f10x_rcc.c ****   */
 217:../stm32f10x_fwlib/src/stm32f10x_rcc.c **** void RCC_DeInit(void)
 218:../stm32f10x_fwlib/src/stm32f10x_rcc.c **** {
  27              		.loc 1 218 1 view -0
  28              		.cfi_startproc
  29              		@ args = 0, pretend = 0, frame = 0
  30              		@ frame_needed = 0, uses_anonymous_args = 0
  31              		@ link register save eliminated.
 219:../stm32f10x_fwlib/src/stm32f10x_rcc.c ****   /* Set HSION bit */
 220:../stm32f10x_fwlib/src/stm32f10x_rcc.c ****   RCC->CR |= (uint32_t)0x00000001;
  32              		.loc 1 220 3 view .LVU1
  33              		.loc 1 220 11 is_stmt 0 view .LVU2
  34 0000 0D4B     		ldr	r3, .L2
  35 0002 1A68     		ldr	r2, [r3]
  36 0004 42F00102 		orr	r2, r2, #1
  37 0008 1A60     		str	r2, [r3]
 221:../stm32f10x_fwlib/src/stm32f10x_rcc.c **** 
 222:../stm32f10x_fwlib/src/stm32f10x_rcc.c ****   /* Reset SW, HPRE, PPRE1, PPRE2, ADCPRE and MCO bits */
 223:../stm32f10x_fwlib/src/stm32f10x_rcc.c **** #ifndef STM32F10X_CL
 224:../stm32f10x_fwlib/src/stm32f10x_rcc.c ****   RCC->CFGR &= (uint32_t)0xF8FF0000;
  38              		.loc 1 224 3 is_stmt 1 view .LVU3
  39              		.loc 1 224 13 is_stmt 0 view .LVU4
  40 000a 5968     		ldr	r1, [r3, #4]
  41 000c 0B4A     		ldr	r2, .L2+4
  42 000e 0A40     		ands	r2, r2, r1
  43 0010 5A60     		str	r2, [r3, #4]
 225:../stm32f10x_fwlib/src/stm32f10x_rcc.c **** #else
 226:../stm32f10x_fwlib/src/stm32f10x_rcc.c ****   RCC->CFGR &= (uint32_t)0xF0FF0000;
 227:../stm32f10x_fwlib/src/stm32f10x_rcc.c **** #endif /* STM32F10X_CL */   
 228:../stm32f10x_fwlib/src/stm32f10x_rcc.c ****   
 229:../stm32f10x_fwlib/src/stm32f10x_rcc.c ****   /* Reset HSEON, CSSON and PLLON bits */
 230:../stm32f10x_fwlib/src/stm32f10x_rcc.c ****   RCC->CR &= (uint32_t)0xFEF6FFFF;
  44              		.loc 1 230 3 is_stmt 1 view .LVU5
  45              		.loc 1 230 11 is_stmt 0 view .LVU6
  46 0012 1A68     		ldr	r2, [r3]
  47 0014 22F08472 		bic	r2, r2, #17301504
  48 0018 22F48032 		bic	r2, r2, #65536
  49 001c 1A60     		str	r2, [r3]
 231:../stm32f10x_fwlib/src/stm32f10x_rcc.c **** 
 232:../stm32f10x_fwlib/src/stm32f10x_rcc.c ****   /* Reset HSEBYP bit */
 233:../stm32f10x_fwlib/src/stm32f10x_rcc.c ****   RCC->CR &= (uint32_t)0xFFFBFFFF;
  50              		.loc 1 233 3 is_stmt 1 view .LVU7
  51              		.loc 1 233 11 is_stmt 0 view .LVU8
  52 001e 1A68     		ldr	r2, [r3]
  53 0020 22F48022 		bic	r2, r2, #262144
ARM GAS  C:\Users\28470\AppData\Local\Temp\ccvYo0xZ.s 			page 6


  54 0024 1A60     		str	r2, [r3]
 234:../stm32f10x_fwlib/src/stm32f10x_rcc.c **** 
 235:../stm32f10x_fwlib/src/stm32f10x_rcc.c ****   /* Reset PLLSRC, PLLXTPRE, PLLMUL and USBPRE/OTGFSPRE bits */
 236:../stm32f10x_fwlib/src/stm32f10x_rcc.c ****   RCC->CFGR &= (uint32_t)0xFF80FFFF;
  55              		.loc 1 236 3 is_stmt 1 view .LVU9
  56              		.loc 1 236 13 is_stmt 0 view .LVU10
  57 0026 5A68     		ldr	r2, [r3, #4]
  58 0028 22F4FE02 		bic	r2, r2, #8323072
  59 002c 5A60     		str	r2, [r3, #4]
 237:../stm32f10x_fwlib/src/stm32f10x_rcc.c **** 
 238:../stm32f10x_fwlib/src/stm32f10x_rcc.c **** #ifdef STM32F10X_CL
 239:../stm32f10x_fwlib/src/stm32f10x_rcc.c ****   /* Reset PLL2ON and PLL3ON bits */
 240:../stm32f10x_fwlib/src/stm32f10x_rcc.c ****   RCC->CR &= (uint32_t)0xEBFFFFFF;
 241:../stm32f10x_fwlib/src/stm32f10x_rcc.c **** 
 242:../stm32f10x_fwlib/src/stm32f10x_rcc.c ****   /* Disable all interrupts and clear pending bits  */
 243:../stm32f10x_fwlib/src/stm32f10x_rcc.c ****   RCC->CIR = 0x00FF0000;
 244:../stm32f10x_fwlib/src/stm32f10x_rcc.c **** 
 245:../stm32f10x_fwlib/src/stm32f10x_rcc.c ****   /* Reset CFGR2 register */
 246:../stm32f10x_fwlib/src/stm32f10x_rcc.c ****   RCC->CFGR2 = 0x00000000;
 247:../stm32f10x_fwlib/src/stm32f10x_rcc.c **** #elif defined (STM32F10X_LD_VL) || defined (STM32F10X_MD_VL) || defined (STM32F10X_HD_VL)
 248:../stm32f10x_fwlib/src/stm32f10x_rcc.c ****   /* Disable all interrupts and clear pending bits  */
 249:../stm32f10x_fwlib/src/stm32f10x_rcc.c ****   RCC->CIR = 0x009F0000;
 250:../stm32f10x_fwlib/src/stm32f10x_rcc.c **** 
 251:../stm32f10x_fwlib/src/stm32f10x_rcc.c ****   /* Reset CFGR2 register */
 252:../stm32f10x_fwlib/src/stm32f10x_rcc.c ****   RCC->CFGR2 = 0x00000000;      
 253:../stm32f10x_fwlib/src/stm32f10x_rcc.c **** #else
 254:../stm32f10x_fwlib/src/stm32f10x_rcc.c ****   /* Disable all interrupts and clear pending bits  */
 255:../stm32f10x_fwlib/src/stm32f10x_rcc.c ****   RCC->CIR = 0x009F0000;
  60              		.loc 1 255 3 is_stmt 1 view .LVU11
  61              		.loc 1 255 12 is_stmt 0 view .LVU12
  62 002e 4FF41F02 		mov	r2, #10420224
  63 0032 9A60     		str	r2, [r3, #8]
 256:../stm32f10x_fwlib/src/stm32f10x_rcc.c **** #endif /* STM32F10X_CL */
 257:../stm32f10x_fwlib/src/stm32f10x_rcc.c **** 
 258:../stm32f10x_fwlib/src/stm32f10x_rcc.c **** }
  64              		.loc 1 258 1 view .LVU13
  65 0034 7047     		bx	lr
  66              	.L3:
  67 0036 00BF     		.align	2
  68              	.L2:
  69 0038 00100240 		.word	1073876992
  70 003c 0000FFF8 		.word	-117506048
  71              		.cfi_endproc
  72              	.LFE29:
  74              		.section	.text.RCC_HSEConfig,"ax",%progbits
  75              		.align	1
  76              		.global	RCC_HSEConfig
  77              		.syntax unified
  78              		.thumb
  79              		.thumb_func
  81              	RCC_HSEConfig:
  82              	.LVL0:
  83              	.LFB30:
 259:../stm32f10x_fwlib/src/stm32f10x_rcc.c **** 
 260:../stm32f10x_fwlib/src/stm32f10x_rcc.c **** /**
 261:../stm32f10x_fwlib/src/stm32f10x_rcc.c ****   * @brief  Configures the External High Speed oscillator (HSE).
 262:../stm32f10x_fwlib/src/stm32f10x_rcc.c ****   * @note   HSE can not be stopped if it is used directly or through the PLL as system clock.
ARM GAS  C:\Users\28470\AppData\Local\Temp\ccvYo0xZ.s 			page 7


 263:../stm32f10x_fwlib/src/stm32f10x_rcc.c ****   * @param  RCC_HSE: specifies the new state of the HSE.
 264:../stm32f10x_fwlib/src/stm32f10x_rcc.c ****   *   This parameter can be one of the following values:
 265:../stm32f10x_fwlib/src/stm32f10x_rcc.c ****   *     @arg RCC_HSE_OFF: HSE oscillator OFF
 266:../stm32f10x_fwlib/src/stm32f10x_rcc.c ****   *     @arg RCC_HSE_ON: HSE oscillator ON
 267:../stm32f10x_fwlib/src/stm32f10x_rcc.c ****   *     @arg RCC_HSE_Bypass: HSE oscillator bypassed with external clock
 268:../stm32f10x_fwlib/src/stm32f10x_rcc.c ****   * @retval None
 269:../stm32f10x_fwlib/src/stm32f10x_rcc.c ****   */
 270:../stm32f10x_fwlib/src/stm32f10x_rcc.c **** void RCC_HSEConfig(uint32_t RCC_HSE)
 271:../stm32f10x_fwlib/src/stm32f10x_rcc.c **** {
  84              		.loc 1 271 1 is_stmt 1 view -0
  85              		.cfi_startproc
  86              		@ args = 0, pretend = 0, frame = 0
  87              		@ frame_needed = 0, uses_anonymous_args = 0
  88              		@ link register save eliminated.
 272:../stm32f10x_fwlib/src/stm32f10x_rcc.c ****   /* Check the parameters */
 273:../stm32f10x_fwlib/src/stm32f10x_rcc.c ****   assert_param(IS_RCC_HSE(RCC_HSE));
  89              		.loc 1 273 3 view .LVU15
 274:../stm32f10x_fwlib/src/stm32f10x_rcc.c ****   /* Reset HSEON and HSEBYP bits before configuring the HSE ------------------*/
 275:../stm32f10x_fwlib/src/stm32f10x_rcc.c ****   /* Reset HSEON bit */
 276:../stm32f10x_fwlib/src/stm32f10x_rcc.c ****   RCC->CR &= CR_HSEON_Reset;
  90              		.loc 1 276 3 view .LVU16
  91              		.loc 1 276 11 is_stmt 0 view .LVU17
  92 0000 0D4B     		ldr	r3, .L8
  93 0002 1A68     		ldr	r2, [r3]
  94 0004 22F48032 		bic	r2, r2, #65536
  95 0008 1A60     		str	r2, [r3]
 277:../stm32f10x_fwlib/src/stm32f10x_rcc.c ****   /* Reset HSEBYP bit */
 278:../stm32f10x_fwlib/src/stm32f10x_rcc.c ****   RCC->CR &= CR_HSEBYP_Reset;
  96              		.loc 1 278 3 is_stmt 1 view .LVU18
  97              		.loc 1 278 11 is_stmt 0 view .LVU19
  98 000a 1A68     		ldr	r2, [r3]
  99 000c 22F48022 		bic	r2, r2, #262144
 100 0010 1A60     		str	r2, [r3]
 279:../stm32f10x_fwlib/src/stm32f10x_rcc.c ****   /* Configure HSE (RCC_HSE_OFF is already covered by the code section above) */
 280:../stm32f10x_fwlib/src/stm32f10x_rcc.c ****   switch(RCC_HSE)
 101              		.loc 1 280 3 is_stmt 1 view .LVU20
 102 0012 B0F5803F 		cmp	r0, #65536
 103 0016 03D0     		beq	.L5
 104 0018 B0F5802F 		cmp	r0, #262144
 105 001c 06D0     		beq	.L6
 106 001e 7047     		bx	lr
 107              	.L5:
 281:../stm32f10x_fwlib/src/stm32f10x_rcc.c ****   {
 282:../stm32f10x_fwlib/src/stm32f10x_rcc.c ****     case RCC_HSE_ON:
 283:../stm32f10x_fwlib/src/stm32f10x_rcc.c ****       /* Set HSEON bit */
 284:../stm32f10x_fwlib/src/stm32f10x_rcc.c ****       RCC->CR |= CR_HSEON_Set;
 108              		.loc 1 284 7 view .LVU21
 109              		.loc 1 284 15 is_stmt 0 view .LVU22
 110 0020 054A     		ldr	r2, .L8
 111 0022 1368     		ldr	r3, [r2]
 112 0024 43F48033 		orr	r3, r3, #65536
 113 0028 1360     		str	r3, [r2]
 285:../stm32f10x_fwlib/src/stm32f10x_rcc.c ****       break;
 114              		.loc 1 285 7 is_stmt 1 view .LVU23
 115 002a 7047     		bx	lr
 116              	.L6:
 286:../stm32f10x_fwlib/src/stm32f10x_rcc.c ****       
ARM GAS  C:\Users\28470\AppData\Local\Temp\ccvYo0xZ.s 			page 8


 287:../stm32f10x_fwlib/src/stm32f10x_rcc.c ****     case RCC_HSE_Bypass:
 288:../stm32f10x_fwlib/src/stm32f10x_rcc.c ****       /* Set HSEBYP and HSEON bits */
 289:../stm32f10x_fwlib/src/stm32f10x_rcc.c ****       RCC->CR |= CR_HSEBYP_Set | CR_HSEON_Set;
 117              		.loc 1 289 7 view .LVU24
 118              		.loc 1 289 15 is_stmt 0 view .LVU25
 119 002c 024A     		ldr	r2, .L8
 120 002e 1368     		ldr	r3, [r2]
 121 0030 43F4A023 		orr	r3, r3, #327680
 122 0034 1360     		str	r3, [r2]
 290:../stm32f10x_fwlib/src/stm32f10x_rcc.c ****       break;
 123              		.loc 1 290 7 is_stmt 1 view .LVU26
 291:../stm32f10x_fwlib/src/stm32f10x_rcc.c ****       
 292:../stm32f10x_fwlib/src/stm32f10x_rcc.c ****     default:
 293:../stm32f10x_fwlib/src/stm32f10x_rcc.c ****       break;
 294:../stm32f10x_fwlib/src/stm32f10x_rcc.c ****   }
 295:../stm32f10x_fwlib/src/stm32f10x_rcc.c **** }
 124              		.loc 1 295 1 is_stmt 0 view .LVU27
 125 0036 7047     		bx	lr
 126              	.L9:
 127              		.align	2
 128              	.L8:
 129 0038 00100240 		.word	1073876992
 130              		.cfi_endproc
 131              	.LFE30:
 133              		.section	.text.RCC_AdjustHSICalibrationValue,"ax",%progbits
 134              		.align	1
 135              		.global	RCC_AdjustHSICalibrationValue
 136              		.syntax unified
 137              		.thumb
 138              		.thumb_func
 140              	RCC_AdjustHSICalibrationValue:
 141              	.LVL1:
 142              	.LFB32:
 296:../stm32f10x_fwlib/src/stm32f10x_rcc.c **** 
 297:../stm32f10x_fwlib/src/stm32f10x_rcc.c **** /**
 298:../stm32f10x_fwlib/src/stm32f10x_rcc.c ****   * @brief  Waits for HSE start-up.
 299:../stm32f10x_fwlib/src/stm32f10x_rcc.c ****   * @param  None
 300:../stm32f10x_fwlib/src/stm32f10x_rcc.c ****   * @retval An ErrorStatus enumuration value:
 301:../stm32f10x_fwlib/src/stm32f10x_rcc.c ****   * - SUCCESS: HSE oscillator is stable and ready to use
 302:../stm32f10x_fwlib/src/stm32f10x_rcc.c ****   * - ERROR: HSE oscillator not yet ready
 303:../stm32f10x_fwlib/src/stm32f10x_rcc.c ****   */
 304:../stm32f10x_fwlib/src/stm32f10x_rcc.c **** ErrorStatus RCC_WaitForHSEStartUp(void)
 305:../stm32f10x_fwlib/src/stm32f10x_rcc.c **** {
 306:../stm32f10x_fwlib/src/stm32f10x_rcc.c ****   __IO uint32_t StartUpCounter = 0;
 307:../stm32f10x_fwlib/src/stm32f10x_rcc.c ****   ErrorStatus status = ERROR;
 308:../stm32f10x_fwlib/src/stm32f10x_rcc.c ****   FlagStatus HSEStatus = RESET;
 309:../stm32f10x_fwlib/src/stm32f10x_rcc.c ****   
 310:../stm32f10x_fwlib/src/stm32f10x_rcc.c ****   /* Wait till HSE is ready and if Time out is reached exit */
 311:../stm32f10x_fwlib/src/stm32f10x_rcc.c ****   do
 312:../stm32f10x_fwlib/src/stm32f10x_rcc.c ****   {
 313:../stm32f10x_fwlib/src/stm32f10x_rcc.c ****     HSEStatus = RCC_GetFlagStatus(RCC_FLAG_HSERDY);
 314:../stm32f10x_fwlib/src/stm32f10x_rcc.c ****     StartUpCounter++;  
 315:../stm32f10x_fwlib/src/stm32f10x_rcc.c ****   } while((StartUpCounter != HSE_STARTUP_TIMEOUT) && (HSEStatus == RESET));
 316:../stm32f10x_fwlib/src/stm32f10x_rcc.c ****   
 317:../stm32f10x_fwlib/src/stm32f10x_rcc.c ****   if (RCC_GetFlagStatus(RCC_FLAG_HSERDY) != RESET)
 318:../stm32f10x_fwlib/src/stm32f10x_rcc.c ****   {
 319:../stm32f10x_fwlib/src/stm32f10x_rcc.c ****     status = SUCCESS;
ARM GAS  C:\Users\28470\AppData\Local\Temp\ccvYo0xZ.s 			page 9


 320:../stm32f10x_fwlib/src/stm32f10x_rcc.c ****   }
 321:../stm32f10x_fwlib/src/stm32f10x_rcc.c ****   else
 322:../stm32f10x_fwlib/src/stm32f10x_rcc.c ****   {
 323:../stm32f10x_fwlib/src/stm32f10x_rcc.c ****     status = ERROR;
 324:../stm32f10x_fwlib/src/stm32f10x_rcc.c ****   }  
 325:../stm32f10x_fwlib/src/stm32f10x_rcc.c ****   return (status);
 326:../stm32f10x_fwlib/src/stm32f10x_rcc.c **** }
 327:../stm32f10x_fwlib/src/stm32f10x_rcc.c **** 
 328:../stm32f10x_fwlib/src/stm32f10x_rcc.c **** /**
 329:../stm32f10x_fwlib/src/stm32f10x_rcc.c ****   * @brief  Adjusts the Internal High Speed oscillator (HSI) calibration value.
 330:../stm32f10x_fwlib/src/stm32f10x_rcc.c ****   * @param  HSICalibrationValue: specifies the calibration trimming value.
 331:../stm32f10x_fwlib/src/stm32f10x_rcc.c ****   *   This parameter must be a number between 0 and 0x1F.
 332:../stm32f10x_fwlib/src/stm32f10x_rcc.c ****   * @retval None
 333:../stm32f10x_fwlib/src/stm32f10x_rcc.c ****   */
 334:../stm32f10x_fwlib/src/stm32f10x_rcc.c **** void RCC_AdjustHSICalibrationValue(uint8_t HSICalibrationValue)
 335:../stm32f10x_fwlib/src/stm32f10x_rcc.c **** {
 143              		.loc 1 335 1 is_stmt 1 view -0
 144              		.cfi_startproc
 145              		@ args = 0, pretend = 0, frame = 0
 146              		@ frame_needed = 0, uses_anonymous_args = 0
 147              		@ link register save eliminated.
 336:../stm32f10x_fwlib/src/stm32f10x_rcc.c ****   uint32_t tmpreg = 0;
 148              		.loc 1 336 3 view .LVU29
 337:../stm32f10x_fwlib/src/stm32f10x_rcc.c ****   /* Check the parameters */
 338:../stm32f10x_fwlib/src/stm32f10x_rcc.c ****   assert_param(IS_RCC_CALIBRATION_VALUE(HSICalibrationValue));
 149              		.loc 1 338 3 view .LVU30
 339:../stm32f10x_fwlib/src/stm32f10x_rcc.c ****   tmpreg = RCC->CR;
 150              		.loc 1 339 3 view .LVU31
 151              		.loc 1 339 10 is_stmt 0 view .LVU32
 152 0000 034A     		ldr	r2, .L11
 153 0002 1368     		ldr	r3, [r2]
 154              	.LVL2:
 340:../stm32f10x_fwlib/src/stm32f10x_rcc.c ****   /* Clear HSITRIM[4:0] bits */
 341:../stm32f10x_fwlib/src/stm32f10x_rcc.c ****   tmpreg &= CR_HSITRIM_Mask;
 155              		.loc 1 341 3 is_stmt 1 view .LVU33
 156              		.loc 1 341 10 is_stmt 0 view .LVU34
 157 0004 23F0F803 		bic	r3, r3, #248
 158              	.LVL3:
 342:../stm32f10x_fwlib/src/stm32f10x_rcc.c ****   /* Set the HSITRIM[4:0] bits according to HSICalibrationValue value */
 343:../stm32f10x_fwlib/src/stm32f10x_rcc.c ****   tmpreg |= (uint32_t)HSICalibrationValue << 3;
 159              		.loc 1 343 3 is_stmt 1 view .LVU35
 160              		.loc 1 343 10 is_stmt 0 view .LVU36
 161 0008 43EAC003 		orr	r3, r3, r0, lsl #3
 162              	.LVL4:
 344:../stm32f10x_fwlib/src/stm32f10x_rcc.c ****   /* Store the new value */
 345:../stm32f10x_fwlib/src/stm32f10x_rcc.c ****   RCC->CR = tmpreg;
 163              		.loc 1 345 3 is_stmt 1 view .LVU37
 164              		.loc 1 345 11 is_stmt 0 view .LVU38
 165 000c 1360     		str	r3, [r2]
 346:../stm32f10x_fwlib/src/stm32f10x_rcc.c **** }
 166              		.loc 1 346 1 view .LVU39
 167 000e 7047     		bx	lr
 168              	.L12:
 169              		.align	2
 170              	.L11:
 171 0010 00100240 		.word	1073876992
 172              		.cfi_endproc
ARM GAS  C:\Users\28470\AppData\Local\Temp\ccvYo0xZ.s 			page 10


 173              	.LFE32:
 175              		.section	.text.RCC_HSICmd,"ax",%progbits
 176              		.align	1
 177              		.global	RCC_HSICmd
 178              		.syntax unified
 179              		.thumb
 180              		.thumb_func
 182              	RCC_HSICmd:
 183              	.LVL5:
 184              	.LFB33:
 347:../stm32f10x_fwlib/src/stm32f10x_rcc.c **** 
 348:../stm32f10x_fwlib/src/stm32f10x_rcc.c **** /**
 349:../stm32f10x_fwlib/src/stm32f10x_rcc.c ****   * @brief  Enables or disables the Internal High Speed oscillator (HSI).
 350:../stm32f10x_fwlib/src/stm32f10x_rcc.c ****   * @note   HSI can not be stopped if it is used directly or through the PLL as system clock.
 351:../stm32f10x_fwlib/src/stm32f10x_rcc.c ****   * @param  NewState: new state of the HSI. This parameter can be: ENABLE or DISABLE.
 352:../stm32f10x_fwlib/src/stm32f10x_rcc.c ****   * @retval None
 353:../stm32f10x_fwlib/src/stm32f10x_rcc.c ****   */
 354:../stm32f10x_fwlib/src/stm32f10x_rcc.c **** void RCC_HSICmd(FunctionalState NewState)
 355:../stm32f10x_fwlib/src/stm32f10x_rcc.c **** {
 185              		.loc 1 355 1 is_stmt 1 view -0
 186              		.cfi_startproc
 187              		@ args = 0, pretend = 0, frame = 0
 188              		@ frame_needed = 0, uses_anonymous_args = 0
 189              		@ link register save eliminated.
 356:../stm32f10x_fwlib/src/stm32f10x_rcc.c ****   /* Check the parameters */
 357:../stm32f10x_fwlib/src/stm32f10x_rcc.c ****   assert_param(IS_FUNCTIONAL_STATE(NewState));
 190              		.loc 1 357 3 view .LVU41
 358:../stm32f10x_fwlib/src/stm32f10x_rcc.c ****   *(__IO uint32_t *) CR_HSION_BB = (uint32_t)NewState;
 191              		.loc 1 358 3 view .LVU42
 192              		.loc 1 358 34 is_stmt 0 view .LVU43
 193 0000 014B     		ldr	r3, .L14
 194 0002 1860     		str	r0, [r3]
 359:../stm32f10x_fwlib/src/stm32f10x_rcc.c **** }
 195              		.loc 1 359 1 view .LVU44
 196 0004 7047     		bx	lr
 197              	.L15:
 198 0006 00BF     		.align	2
 199              	.L14:
 200 0008 00004242 		.word	1111621632
 201              		.cfi_endproc
 202              	.LFE33:
 204              		.section	.text.RCC_PLLConfig,"ax",%progbits
 205              		.align	1
 206              		.global	RCC_PLLConfig
 207              		.syntax unified
 208              		.thumb
 209              		.thumb_func
 211              	RCC_PLLConfig:
 212              	.LVL6:
 213              	.LFB34:
 360:../stm32f10x_fwlib/src/stm32f10x_rcc.c **** 
 361:../stm32f10x_fwlib/src/stm32f10x_rcc.c **** /**
 362:../stm32f10x_fwlib/src/stm32f10x_rcc.c ****   * @brief  Configures the PLL clock source and multiplication factor.
 363:../stm32f10x_fwlib/src/stm32f10x_rcc.c ****   * @note   This function must be used only when the PLL is disabled.
 364:../stm32f10x_fwlib/src/stm32f10x_rcc.c ****   * @param  RCC_PLLSource: specifies the PLL entry clock source.
 365:../stm32f10x_fwlib/src/stm32f10x_rcc.c ****   *   For @b STM32_Connectivity_line_devices or @b STM32_Value_line_devices, 
 366:../stm32f10x_fwlib/src/stm32f10x_rcc.c ****   *   this parameter can be one of the following values:
ARM GAS  C:\Users\28470\AppData\Local\Temp\ccvYo0xZ.s 			page 11


 367:../stm32f10x_fwlib/src/stm32f10x_rcc.c ****   *     @arg RCC_PLLSource_HSI_Div2: HSI oscillator clock divided by 2 selected as PLL clock entry
 368:../stm32f10x_fwlib/src/stm32f10x_rcc.c ****   *     @arg RCC_PLLSource_PREDIV1: PREDIV1 clock selected as PLL clock entry
 369:../stm32f10x_fwlib/src/stm32f10x_rcc.c ****   *   For @b other_STM32_devices, this parameter can be one of the following values:
 370:../stm32f10x_fwlib/src/stm32f10x_rcc.c ****   *     @arg RCC_PLLSource_HSI_Div2: HSI oscillator clock divided by 2 selected as PLL clock entry
 371:../stm32f10x_fwlib/src/stm32f10x_rcc.c ****   *     @arg RCC_PLLSource_HSE_Div1: HSE oscillator clock selected as PLL clock entry
 372:../stm32f10x_fwlib/src/stm32f10x_rcc.c ****   *     @arg RCC_PLLSource_HSE_Div2: HSE oscillator clock divided by 2 selected as PLL clock entry 
 373:../stm32f10x_fwlib/src/stm32f10x_rcc.c ****   * @param  RCC_PLLMul: specifies the PLL multiplication factor.
 374:../stm32f10x_fwlib/src/stm32f10x_rcc.c ****   *   For @b STM32_Connectivity_line_devices, this parameter can be RCC_PLLMul_x where x:{[4,9], 6_
 375:../stm32f10x_fwlib/src/stm32f10x_rcc.c ****   *   For @b other_STM32_devices, this parameter can be RCC_PLLMul_x where x:[2,16]  
 376:../stm32f10x_fwlib/src/stm32f10x_rcc.c ****   * @retval None
 377:../stm32f10x_fwlib/src/stm32f10x_rcc.c ****   */
 378:../stm32f10x_fwlib/src/stm32f10x_rcc.c **** void RCC_PLLConfig(uint32_t RCC_PLLSource, uint32_t RCC_PLLMul)
 379:../stm32f10x_fwlib/src/stm32f10x_rcc.c **** {
 214              		.loc 1 379 1 is_stmt 1 view -0
 215              		.cfi_startproc
 216              		@ args = 0, pretend = 0, frame = 0
 217              		@ frame_needed = 0, uses_anonymous_args = 0
 218              		@ link register save eliminated.
 380:../stm32f10x_fwlib/src/stm32f10x_rcc.c ****   uint32_t tmpreg = 0;
 219              		.loc 1 380 3 view .LVU46
 381:../stm32f10x_fwlib/src/stm32f10x_rcc.c **** 
 382:../stm32f10x_fwlib/src/stm32f10x_rcc.c ****   /* Check the parameters */
 383:../stm32f10x_fwlib/src/stm32f10x_rcc.c ****   assert_param(IS_RCC_PLL_SOURCE(RCC_PLLSource));
 220              		.loc 1 383 3 view .LVU47
 384:../stm32f10x_fwlib/src/stm32f10x_rcc.c ****   assert_param(IS_RCC_PLL_MUL(RCC_PLLMul));
 221              		.loc 1 384 3 view .LVU48
 385:../stm32f10x_fwlib/src/stm32f10x_rcc.c **** 
 386:../stm32f10x_fwlib/src/stm32f10x_rcc.c ****   tmpreg = RCC->CFGR;
 222              		.loc 1 386 3 view .LVU49
 223              		.loc 1 386 10 is_stmt 0 view .LVU50
 224 0000 034A     		ldr	r2, .L17
 225 0002 5368     		ldr	r3, [r2, #4]
 226              	.LVL7:
 387:../stm32f10x_fwlib/src/stm32f10x_rcc.c ****   /* Clear PLLSRC, PLLXTPRE and PLLMUL[3:0] bits */
 388:../stm32f10x_fwlib/src/stm32f10x_rcc.c ****   tmpreg &= CFGR_PLL_Mask;
 227              		.loc 1 388 3 is_stmt 1 view .LVU51
 228              		.loc 1 388 10 is_stmt 0 view .LVU52
 229 0004 23F47C13 		bic	r3, r3, #4128768
 230              	.LVL8:
 389:../stm32f10x_fwlib/src/stm32f10x_rcc.c ****   /* Set the PLL configuration bits */
 390:../stm32f10x_fwlib/src/stm32f10x_rcc.c ****   tmpreg |= RCC_PLLSource | RCC_PLLMul;
 231              		.loc 1 390 3 is_stmt 1 view .LVU53
 232              		.loc 1 390 27 is_stmt 0 view .LVU54
 233 0008 0843     		orrs	r0, r0, r1
 234              	.LVL9:
 235              		.loc 1 390 10 view .LVU55
 236 000a 1843     		orrs	r0, r0, r3
 237              	.LVL10:
 391:../stm32f10x_fwlib/src/stm32f10x_rcc.c ****   /* Store the new value */
 392:../stm32f10x_fwlib/src/stm32f10x_rcc.c ****   RCC->CFGR = tmpreg;
 238              		.loc 1 392 3 is_stmt 1 view .LVU56
 239              		.loc 1 392 13 is_stmt 0 view .LVU57
 240 000c 5060     		str	r0, [r2, #4]
 393:../stm32f10x_fwlib/src/stm32f10x_rcc.c **** }
 241              		.loc 1 393 1 view .LVU58
 242 000e 7047     		bx	lr
 243              	.L18:
ARM GAS  C:\Users\28470\AppData\Local\Temp\ccvYo0xZ.s 			page 12


 244              		.align	2
 245              	.L17:
 246 0010 00100240 		.word	1073876992
 247              		.cfi_endproc
 248              	.LFE34:
 250              		.section	.text.RCC_PLLCmd,"ax",%progbits
 251              		.align	1
 252              		.global	RCC_PLLCmd
 253              		.syntax unified
 254              		.thumb
 255              		.thumb_func
 257              	RCC_PLLCmd:
 258              	.LVL11:
 259              	.LFB35:
 394:../stm32f10x_fwlib/src/stm32f10x_rcc.c **** 
 395:../stm32f10x_fwlib/src/stm32f10x_rcc.c **** /**
 396:../stm32f10x_fwlib/src/stm32f10x_rcc.c ****   * @brief  Enables or disables the PLL.
 397:../stm32f10x_fwlib/src/stm32f10x_rcc.c ****   * @note   The PLL can not be disabled if it is used as system clock.
 398:../stm32f10x_fwlib/src/stm32f10x_rcc.c ****   * @param  NewState: new state of the PLL. This parameter can be: ENABLE or DISABLE.
 399:../stm32f10x_fwlib/src/stm32f10x_rcc.c ****   * @retval None
 400:../stm32f10x_fwlib/src/stm32f10x_rcc.c ****   */
 401:../stm32f10x_fwlib/src/stm32f10x_rcc.c **** void RCC_PLLCmd(FunctionalState NewState)
 402:../stm32f10x_fwlib/src/stm32f10x_rcc.c **** {
 260              		.loc 1 402 1 is_stmt 1 view -0
 261              		.cfi_startproc
 262              		@ args = 0, pretend = 0, frame = 0
 263              		@ frame_needed = 0, uses_anonymous_args = 0
 264              		@ link register save eliminated.
 403:../stm32f10x_fwlib/src/stm32f10x_rcc.c ****   /* Check the parameters */
 404:../stm32f10x_fwlib/src/stm32f10x_rcc.c ****   assert_param(IS_FUNCTIONAL_STATE(NewState));
 265              		.loc 1 404 3 view .LVU60
 405:../stm32f10x_fwlib/src/stm32f10x_rcc.c **** 
 406:../stm32f10x_fwlib/src/stm32f10x_rcc.c ****   *(__IO uint32_t *) CR_PLLON_BB = (uint32_t)NewState;
 266              		.loc 1 406 3 view .LVU61
 267              		.loc 1 406 34 is_stmt 0 view .LVU62
 268 0000 014B     		ldr	r3, .L20
 269 0002 1866     		str	r0, [r3, #96]
 407:../stm32f10x_fwlib/src/stm32f10x_rcc.c **** }
 270              		.loc 1 407 1 view .LVU63
 271 0004 7047     		bx	lr
 272              	.L21:
 273 0006 00BF     		.align	2
 274              	.L20:
 275 0008 00004242 		.word	1111621632
 276              		.cfi_endproc
 277              	.LFE35:
 279              		.section	.text.RCC_SYSCLKConfig,"ax",%progbits
 280              		.align	1
 281              		.global	RCC_SYSCLKConfig
 282              		.syntax unified
 283              		.thumb
 284              		.thumb_func
 286              	RCC_SYSCLKConfig:
 287              	.LVL12:
 288              	.LFB36:
 408:../stm32f10x_fwlib/src/stm32f10x_rcc.c **** 
 409:../stm32f10x_fwlib/src/stm32f10x_rcc.c **** #if defined (STM32F10X_LD_VL) || defined (STM32F10X_MD_VL) || defined (STM32F10X_HD_VL) || defined 
ARM GAS  C:\Users\28470\AppData\Local\Temp\ccvYo0xZ.s 			page 13


 410:../stm32f10x_fwlib/src/stm32f10x_rcc.c **** /**
 411:../stm32f10x_fwlib/src/stm32f10x_rcc.c ****   * @brief  Configures the PREDIV1 division factor.
 412:../stm32f10x_fwlib/src/stm32f10x_rcc.c ****   * @note 
 413:../stm32f10x_fwlib/src/stm32f10x_rcc.c ****   *   - This function must be used only when the PLL is disabled.
 414:../stm32f10x_fwlib/src/stm32f10x_rcc.c ****   *   - This function applies only to STM32 Connectivity line and Value line 
 415:../stm32f10x_fwlib/src/stm32f10x_rcc.c ****   *     devices.
 416:../stm32f10x_fwlib/src/stm32f10x_rcc.c ****   * @param  RCC_PREDIV1_Source: specifies the PREDIV1 clock source.
 417:../stm32f10x_fwlib/src/stm32f10x_rcc.c ****   *   This parameter can be one of the following values:
 418:../stm32f10x_fwlib/src/stm32f10x_rcc.c ****   *     @arg RCC_PREDIV1_Source_HSE: HSE selected as PREDIV1 clock
 419:../stm32f10x_fwlib/src/stm32f10x_rcc.c ****   *     @arg RCC_PREDIV1_Source_PLL2: PLL2 selected as PREDIV1 clock
 420:../stm32f10x_fwlib/src/stm32f10x_rcc.c ****   * @note 
 421:../stm32f10x_fwlib/src/stm32f10x_rcc.c ****   *   For @b STM32_Value_line_devices this parameter is always RCC_PREDIV1_Source_HSE  
 422:../stm32f10x_fwlib/src/stm32f10x_rcc.c ****   * @param  RCC_PREDIV1_Div: specifies the PREDIV1 clock division factor.
 423:../stm32f10x_fwlib/src/stm32f10x_rcc.c ****   *   This parameter can be RCC_PREDIV1_Divx where x:[1,16]
 424:../stm32f10x_fwlib/src/stm32f10x_rcc.c ****   * @retval None
 425:../stm32f10x_fwlib/src/stm32f10x_rcc.c ****   */
 426:../stm32f10x_fwlib/src/stm32f10x_rcc.c **** void RCC_PREDIV1Config(uint32_t RCC_PREDIV1_Source, uint32_t RCC_PREDIV1_Div)
 427:../stm32f10x_fwlib/src/stm32f10x_rcc.c **** {
 428:../stm32f10x_fwlib/src/stm32f10x_rcc.c ****   uint32_t tmpreg = 0;
 429:../stm32f10x_fwlib/src/stm32f10x_rcc.c ****   
 430:../stm32f10x_fwlib/src/stm32f10x_rcc.c ****   /* Check the parameters */
 431:../stm32f10x_fwlib/src/stm32f10x_rcc.c ****   assert_param(IS_RCC_PREDIV1_SOURCE(RCC_PREDIV1_Source));
 432:../stm32f10x_fwlib/src/stm32f10x_rcc.c ****   assert_param(IS_RCC_PREDIV1(RCC_PREDIV1_Div));
 433:../stm32f10x_fwlib/src/stm32f10x_rcc.c **** 
 434:../stm32f10x_fwlib/src/stm32f10x_rcc.c ****   tmpreg = RCC->CFGR2;
 435:../stm32f10x_fwlib/src/stm32f10x_rcc.c ****   /* Clear PREDIV1[3:0] and PREDIV1SRC bits */
 436:../stm32f10x_fwlib/src/stm32f10x_rcc.c ****   tmpreg &= ~(CFGR2_PREDIV1 | CFGR2_PREDIV1SRC);
 437:../stm32f10x_fwlib/src/stm32f10x_rcc.c ****   /* Set the PREDIV1 clock source and division factor */
 438:../stm32f10x_fwlib/src/stm32f10x_rcc.c ****   tmpreg |= RCC_PREDIV1_Source | RCC_PREDIV1_Div ;
 439:../stm32f10x_fwlib/src/stm32f10x_rcc.c ****   /* Store the new value */
 440:../stm32f10x_fwlib/src/stm32f10x_rcc.c ****   RCC->CFGR2 = tmpreg;
 441:../stm32f10x_fwlib/src/stm32f10x_rcc.c **** }
 442:../stm32f10x_fwlib/src/stm32f10x_rcc.c **** #endif
 443:../stm32f10x_fwlib/src/stm32f10x_rcc.c **** 
 444:../stm32f10x_fwlib/src/stm32f10x_rcc.c **** #ifdef STM32F10X_CL
 445:../stm32f10x_fwlib/src/stm32f10x_rcc.c **** /**
 446:../stm32f10x_fwlib/src/stm32f10x_rcc.c ****   * @brief  Configures the PREDIV2 division factor.
 447:../stm32f10x_fwlib/src/stm32f10x_rcc.c ****   * @note 
 448:../stm32f10x_fwlib/src/stm32f10x_rcc.c ****   *   - This function must be used only when both PLL2 and PLL3 are disabled.
 449:../stm32f10x_fwlib/src/stm32f10x_rcc.c ****   *   - This function applies only to STM32 Connectivity line devices.
 450:../stm32f10x_fwlib/src/stm32f10x_rcc.c ****   * @param  RCC_PREDIV2_Div: specifies the PREDIV2 clock division factor.
 451:../stm32f10x_fwlib/src/stm32f10x_rcc.c ****   *   This parameter can be RCC_PREDIV2_Divx where x:[1,16]
 452:../stm32f10x_fwlib/src/stm32f10x_rcc.c ****   * @retval None
 453:../stm32f10x_fwlib/src/stm32f10x_rcc.c ****   */
 454:../stm32f10x_fwlib/src/stm32f10x_rcc.c **** void RCC_PREDIV2Config(uint32_t RCC_PREDIV2_Div)
 455:../stm32f10x_fwlib/src/stm32f10x_rcc.c **** {
 456:../stm32f10x_fwlib/src/stm32f10x_rcc.c ****   uint32_t tmpreg = 0;
 457:../stm32f10x_fwlib/src/stm32f10x_rcc.c **** 
 458:../stm32f10x_fwlib/src/stm32f10x_rcc.c ****   /* Check the parameters */
 459:../stm32f10x_fwlib/src/stm32f10x_rcc.c ****   assert_param(IS_RCC_PREDIV2(RCC_PREDIV2_Div));
 460:../stm32f10x_fwlib/src/stm32f10x_rcc.c **** 
 461:../stm32f10x_fwlib/src/stm32f10x_rcc.c ****   tmpreg = RCC->CFGR2;
 462:../stm32f10x_fwlib/src/stm32f10x_rcc.c ****   /* Clear PREDIV2[3:0] bits */
 463:../stm32f10x_fwlib/src/stm32f10x_rcc.c ****   tmpreg &= ~CFGR2_PREDIV2;
 464:../stm32f10x_fwlib/src/stm32f10x_rcc.c ****   /* Set the PREDIV2 division factor */
 465:../stm32f10x_fwlib/src/stm32f10x_rcc.c ****   tmpreg |= RCC_PREDIV2_Div;
 466:../stm32f10x_fwlib/src/stm32f10x_rcc.c ****   /* Store the new value */
ARM GAS  C:\Users\28470\AppData\Local\Temp\ccvYo0xZ.s 			page 14


 467:../stm32f10x_fwlib/src/stm32f10x_rcc.c ****   RCC->CFGR2 = tmpreg;
 468:../stm32f10x_fwlib/src/stm32f10x_rcc.c **** }
 469:../stm32f10x_fwlib/src/stm32f10x_rcc.c **** 
 470:../stm32f10x_fwlib/src/stm32f10x_rcc.c **** /**
 471:../stm32f10x_fwlib/src/stm32f10x_rcc.c ****   * @brief  Configures the PLL2 multiplication factor.
 472:../stm32f10x_fwlib/src/stm32f10x_rcc.c ****   * @note
 473:../stm32f10x_fwlib/src/stm32f10x_rcc.c ****   *   - This function must be used only when the PLL2 is disabled.
 474:../stm32f10x_fwlib/src/stm32f10x_rcc.c ****   *   - This function applies only to STM32 Connectivity line devices.
 475:../stm32f10x_fwlib/src/stm32f10x_rcc.c ****   * @param  RCC_PLL2Mul: specifies the PLL2 multiplication factor.
 476:../stm32f10x_fwlib/src/stm32f10x_rcc.c ****   *   This parameter can be RCC_PLL2Mul_x where x:{[8,14], 16, 20}
 477:../stm32f10x_fwlib/src/stm32f10x_rcc.c ****   * @retval None
 478:../stm32f10x_fwlib/src/stm32f10x_rcc.c ****   */
 479:../stm32f10x_fwlib/src/stm32f10x_rcc.c **** void RCC_PLL2Config(uint32_t RCC_PLL2Mul)
 480:../stm32f10x_fwlib/src/stm32f10x_rcc.c **** {
 481:../stm32f10x_fwlib/src/stm32f10x_rcc.c ****   uint32_t tmpreg = 0;
 482:../stm32f10x_fwlib/src/stm32f10x_rcc.c **** 
 483:../stm32f10x_fwlib/src/stm32f10x_rcc.c ****   /* Check the parameters */
 484:../stm32f10x_fwlib/src/stm32f10x_rcc.c ****   assert_param(IS_RCC_PLL2_MUL(RCC_PLL2Mul));
 485:../stm32f10x_fwlib/src/stm32f10x_rcc.c **** 
 486:../stm32f10x_fwlib/src/stm32f10x_rcc.c ****   tmpreg = RCC->CFGR2;
 487:../stm32f10x_fwlib/src/stm32f10x_rcc.c ****   /* Clear PLL2Mul[3:0] bits */
 488:../stm32f10x_fwlib/src/stm32f10x_rcc.c ****   tmpreg &= ~CFGR2_PLL2MUL;
 489:../stm32f10x_fwlib/src/stm32f10x_rcc.c ****   /* Set the PLL2 configuration bits */
 490:../stm32f10x_fwlib/src/stm32f10x_rcc.c ****   tmpreg |= RCC_PLL2Mul;
 491:../stm32f10x_fwlib/src/stm32f10x_rcc.c ****   /* Store the new value */
 492:../stm32f10x_fwlib/src/stm32f10x_rcc.c ****   RCC->CFGR2 = tmpreg;
 493:../stm32f10x_fwlib/src/stm32f10x_rcc.c **** }
 494:../stm32f10x_fwlib/src/stm32f10x_rcc.c **** 
 495:../stm32f10x_fwlib/src/stm32f10x_rcc.c **** 
 496:../stm32f10x_fwlib/src/stm32f10x_rcc.c **** /**
 497:../stm32f10x_fwlib/src/stm32f10x_rcc.c ****   * @brief  Enables or disables the PLL2.
 498:../stm32f10x_fwlib/src/stm32f10x_rcc.c ****   * @note 
 499:../stm32f10x_fwlib/src/stm32f10x_rcc.c ****   *   - The PLL2 can not be disabled if it is used indirectly as system clock
 500:../stm32f10x_fwlib/src/stm32f10x_rcc.c ****   *     (i.e. it is used as PLL clock entry that is used as System clock).
 501:../stm32f10x_fwlib/src/stm32f10x_rcc.c ****   *   - This function applies only to STM32 Connectivity line devices.
 502:../stm32f10x_fwlib/src/stm32f10x_rcc.c ****   * @param  NewState: new state of the PLL2. This parameter can be: ENABLE or DISABLE.
 503:../stm32f10x_fwlib/src/stm32f10x_rcc.c ****   * @retval None
 504:../stm32f10x_fwlib/src/stm32f10x_rcc.c ****   */
 505:../stm32f10x_fwlib/src/stm32f10x_rcc.c **** void RCC_PLL2Cmd(FunctionalState NewState)
 506:../stm32f10x_fwlib/src/stm32f10x_rcc.c **** {
 507:../stm32f10x_fwlib/src/stm32f10x_rcc.c ****   /* Check the parameters */
 508:../stm32f10x_fwlib/src/stm32f10x_rcc.c ****   assert_param(IS_FUNCTIONAL_STATE(NewState));
 509:../stm32f10x_fwlib/src/stm32f10x_rcc.c **** 
 510:../stm32f10x_fwlib/src/stm32f10x_rcc.c ****   *(__IO uint32_t *) CR_PLL2ON_BB = (uint32_t)NewState;
 511:../stm32f10x_fwlib/src/stm32f10x_rcc.c **** }
 512:../stm32f10x_fwlib/src/stm32f10x_rcc.c **** 
 513:../stm32f10x_fwlib/src/stm32f10x_rcc.c **** 
 514:../stm32f10x_fwlib/src/stm32f10x_rcc.c **** /**
 515:../stm32f10x_fwlib/src/stm32f10x_rcc.c ****   * @brief  Configures the PLL3 multiplication factor.
 516:../stm32f10x_fwlib/src/stm32f10x_rcc.c ****   * @note 
 517:../stm32f10x_fwlib/src/stm32f10x_rcc.c ****   *   - This function must be used only when the PLL3 is disabled.
 518:../stm32f10x_fwlib/src/stm32f10x_rcc.c ****   *   - This function applies only to STM32 Connectivity line devices.
 519:../stm32f10x_fwlib/src/stm32f10x_rcc.c ****   * @param  RCC_PLL3Mul: specifies the PLL3 multiplication factor.
 520:../stm32f10x_fwlib/src/stm32f10x_rcc.c ****   *   This parameter can be RCC_PLL3Mul_x where x:{[8,14], 16, 20}
 521:../stm32f10x_fwlib/src/stm32f10x_rcc.c ****   * @retval None
 522:../stm32f10x_fwlib/src/stm32f10x_rcc.c ****   */
 523:../stm32f10x_fwlib/src/stm32f10x_rcc.c **** void RCC_PLL3Config(uint32_t RCC_PLL3Mul)
ARM GAS  C:\Users\28470\AppData\Local\Temp\ccvYo0xZ.s 			page 15


 524:../stm32f10x_fwlib/src/stm32f10x_rcc.c **** {
 525:../stm32f10x_fwlib/src/stm32f10x_rcc.c ****   uint32_t tmpreg = 0;
 526:../stm32f10x_fwlib/src/stm32f10x_rcc.c **** 
 527:../stm32f10x_fwlib/src/stm32f10x_rcc.c ****   /* Check the parameters */
 528:../stm32f10x_fwlib/src/stm32f10x_rcc.c ****   assert_param(IS_RCC_PLL3_MUL(RCC_PLL3Mul));
 529:../stm32f10x_fwlib/src/stm32f10x_rcc.c **** 
 530:../stm32f10x_fwlib/src/stm32f10x_rcc.c ****   tmpreg = RCC->CFGR2;
 531:../stm32f10x_fwlib/src/stm32f10x_rcc.c ****   /* Clear PLL3Mul[3:0] bits */
 532:../stm32f10x_fwlib/src/stm32f10x_rcc.c ****   tmpreg &= ~CFGR2_PLL3MUL;
 533:../stm32f10x_fwlib/src/stm32f10x_rcc.c ****   /* Set the PLL3 configuration bits */
 534:../stm32f10x_fwlib/src/stm32f10x_rcc.c ****   tmpreg |= RCC_PLL3Mul;
 535:../stm32f10x_fwlib/src/stm32f10x_rcc.c ****   /* Store the new value */
 536:../stm32f10x_fwlib/src/stm32f10x_rcc.c ****   RCC->CFGR2 = tmpreg;
 537:../stm32f10x_fwlib/src/stm32f10x_rcc.c **** }
 538:../stm32f10x_fwlib/src/stm32f10x_rcc.c **** 
 539:../stm32f10x_fwlib/src/stm32f10x_rcc.c **** 
 540:../stm32f10x_fwlib/src/stm32f10x_rcc.c **** /**
 541:../stm32f10x_fwlib/src/stm32f10x_rcc.c ****   * @brief  Enables or disables the PLL3.
 542:../stm32f10x_fwlib/src/stm32f10x_rcc.c ****   * @note   This function applies only to STM32 Connectivity line devices.
 543:../stm32f10x_fwlib/src/stm32f10x_rcc.c ****   * @param  NewState: new state of the PLL3. This parameter can be: ENABLE or DISABLE.
 544:../stm32f10x_fwlib/src/stm32f10x_rcc.c ****   * @retval None
 545:../stm32f10x_fwlib/src/stm32f10x_rcc.c ****   */
 546:../stm32f10x_fwlib/src/stm32f10x_rcc.c **** void RCC_PLL3Cmd(FunctionalState NewState)
 547:../stm32f10x_fwlib/src/stm32f10x_rcc.c **** {
 548:../stm32f10x_fwlib/src/stm32f10x_rcc.c ****   /* Check the parameters */
 549:../stm32f10x_fwlib/src/stm32f10x_rcc.c **** 
 550:../stm32f10x_fwlib/src/stm32f10x_rcc.c ****   assert_param(IS_FUNCTIONAL_STATE(NewState));
 551:../stm32f10x_fwlib/src/stm32f10x_rcc.c ****   *(__IO uint32_t *) CR_PLL3ON_BB = (uint32_t)NewState;
 552:../stm32f10x_fwlib/src/stm32f10x_rcc.c **** }
 553:../stm32f10x_fwlib/src/stm32f10x_rcc.c **** #endif /* STM32F10X_CL */
 554:../stm32f10x_fwlib/src/stm32f10x_rcc.c **** 
 555:../stm32f10x_fwlib/src/stm32f10x_rcc.c **** /**
 556:../stm32f10x_fwlib/src/stm32f10x_rcc.c ****   * @brief  Configures the system clock (SYSCLK).
 557:../stm32f10x_fwlib/src/stm32f10x_rcc.c ****   * @param  RCC_SYSCLKSource: specifies the clock source used as system clock.
 558:../stm32f10x_fwlib/src/stm32f10x_rcc.c ****   *   This parameter can be one of the following values:
 559:../stm32f10x_fwlib/src/stm32f10x_rcc.c ****   *     @arg RCC_SYSCLKSource_HSI: HSI selected as system clock
 560:../stm32f10x_fwlib/src/stm32f10x_rcc.c ****   *     @arg RCC_SYSCLKSource_HSE: HSE selected as system clock
 561:../stm32f10x_fwlib/src/stm32f10x_rcc.c ****   *     @arg RCC_SYSCLKSource_PLLCLK: PLL selected as system clock
 562:../stm32f10x_fwlib/src/stm32f10x_rcc.c ****   * @retval None
 563:../stm32f10x_fwlib/src/stm32f10x_rcc.c ****   */
 564:../stm32f10x_fwlib/src/stm32f10x_rcc.c **** void RCC_SYSCLKConfig(uint32_t RCC_SYSCLKSource)
 565:../stm32f10x_fwlib/src/stm32f10x_rcc.c **** {
 289              		.loc 1 565 1 is_stmt 1 view -0
 290              		.cfi_startproc
 291              		@ args = 0, pretend = 0, frame = 0
 292              		@ frame_needed = 0, uses_anonymous_args = 0
 293              		@ link register save eliminated.
 566:../stm32f10x_fwlib/src/stm32f10x_rcc.c ****   uint32_t tmpreg = 0;
 294              		.loc 1 566 3 view .LVU65
 567:../stm32f10x_fwlib/src/stm32f10x_rcc.c ****   /* Check the parameters */
 568:../stm32f10x_fwlib/src/stm32f10x_rcc.c ****   assert_param(IS_RCC_SYSCLK_SOURCE(RCC_SYSCLKSource));
 295              		.loc 1 568 3 view .LVU66
 569:../stm32f10x_fwlib/src/stm32f10x_rcc.c ****   tmpreg = RCC->CFGR;
 296              		.loc 1 569 3 view .LVU67
 297              		.loc 1 569 10 is_stmt 0 view .LVU68
 298 0000 034A     		ldr	r2, .L23
 299 0002 5368     		ldr	r3, [r2, #4]
ARM GAS  C:\Users\28470\AppData\Local\Temp\ccvYo0xZ.s 			page 16


 300              	.LVL13:
 570:../stm32f10x_fwlib/src/stm32f10x_rcc.c ****   /* Clear SW[1:0] bits */
 571:../stm32f10x_fwlib/src/stm32f10x_rcc.c ****   tmpreg &= CFGR_SW_Mask;
 301              		.loc 1 571 3 is_stmt 1 view .LVU69
 302              		.loc 1 571 10 is_stmt 0 view .LVU70
 303 0004 23F00303 		bic	r3, r3, #3
 304              	.LVL14:
 572:../stm32f10x_fwlib/src/stm32f10x_rcc.c ****   /* Set SW[1:0] bits according to RCC_SYSCLKSource value */
 573:../stm32f10x_fwlib/src/stm32f10x_rcc.c ****   tmpreg |= RCC_SYSCLKSource;
 305              		.loc 1 573 3 is_stmt 1 view .LVU71
 306              		.loc 1 573 10 is_stmt 0 view .LVU72
 307 0008 0343     		orrs	r3, r3, r0
 308              	.LVL15:
 574:../stm32f10x_fwlib/src/stm32f10x_rcc.c ****   /* Store the new value */
 575:../stm32f10x_fwlib/src/stm32f10x_rcc.c ****   RCC->CFGR = tmpreg;
 309              		.loc 1 575 3 is_stmt 1 view .LVU73
 310              		.loc 1 575 13 is_stmt 0 view .LVU74
 311 000a 5360     		str	r3, [r2, #4]
 576:../stm32f10x_fwlib/src/stm32f10x_rcc.c **** }
 312              		.loc 1 576 1 view .LVU75
 313 000c 7047     		bx	lr
 314              	.L24:
 315 000e 00BF     		.align	2
 316              	.L23:
 317 0010 00100240 		.word	1073876992
 318              		.cfi_endproc
 319              	.LFE36:
 321              		.section	.text.RCC_GetSYSCLKSource,"ax",%progbits
 322              		.align	1
 323              		.global	RCC_GetSYSCLKSource
 324              		.syntax unified
 325              		.thumb
 326              		.thumb_func
 328              	RCC_GetSYSCLKSource:
 329              	.LFB37:
 577:../stm32f10x_fwlib/src/stm32f10x_rcc.c **** 
 578:../stm32f10x_fwlib/src/stm32f10x_rcc.c **** /**
 579:../stm32f10x_fwlib/src/stm32f10x_rcc.c ****   * @brief  Returns the clock source used as system clock.
 580:../stm32f10x_fwlib/src/stm32f10x_rcc.c ****   * @param  None
 581:../stm32f10x_fwlib/src/stm32f10x_rcc.c ****   * @retval The clock source used as system clock. The returned value can
 582:../stm32f10x_fwlib/src/stm32f10x_rcc.c ****   *   be one of the following:
 583:../stm32f10x_fwlib/src/stm32f10x_rcc.c ****   *     - 0x00: HSI used as system clock
 584:../stm32f10x_fwlib/src/stm32f10x_rcc.c ****   *     - 0x04: HSE used as system clock
 585:../stm32f10x_fwlib/src/stm32f10x_rcc.c ****   *     - 0x08: PLL used as system clock
 586:../stm32f10x_fwlib/src/stm32f10x_rcc.c ****   */
 587:../stm32f10x_fwlib/src/stm32f10x_rcc.c **** uint8_t RCC_GetSYSCLKSource(void)
 588:../stm32f10x_fwlib/src/stm32f10x_rcc.c **** {
 330              		.loc 1 588 1 is_stmt 1 view -0
 331              		.cfi_startproc
 332              		@ args = 0, pretend = 0, frame = 0
 333              		@ frame_needed = 0, uses_anonymous_args = 0
 334              		@ link register save eliminated.
 589:../stm32f10x_fwlib/src/stm32f10x_rcc.c ****   return ((uint8_t)(RCC->CFGR & CFGR_SWS_Mask));
 335              		.loc 1 589 3 view .LVU77
 336              		.loc 1 589 24 is_stmt 0 view .LVU78
 337 0000 024B     		ldr	r3, .L26
 338 0002 5868     		ldr	r0, [r3, #4]
ARM GAS  C:\Users\28470\AppData\Local\Temp\ccvYo0xZ.s 			page 17


 590:../stm32f10x_fwlib/src/stm32f10x_rcc.c **** }
 339              		.loc 1 590 1 view .LVU79
 340 0004 00F00C00 		and	r0, r0, #12
 341 0008 7047     		bx	lr
 342              	.L27:
 343 000a 00BF     		.align	2
 344              	.L26:
 345 000c 00100240 		.word	1073876992
 346              		.cfi_endproc
 347              	.LFE37:
 349              		.section	.text.RCC_HCLKConfig,"ax",%progbits
 350              		.align	1
 351              		.global	RCC_HCLKConfig
 352              		.syntax unified
 353              		.thumb
 354              		.thumb_func
 356              	RCC_HCLKConfig:
 357              	.LVL16:
 358              	.LFB38:
 591:../stm32f10x_fwlib/src/stm32f10x_rcc.c **** 
 592:../stm32f10x_fwlib/src/stm32f10x_rcc.c **** /**
 593:../stm32f10x_fwlib/src/stm32f10x_rcc.c ****   * @brief  Configures the AHB clock (HCLK).
 594:../stm32f10x_fwlib/src/stm32f10x_rcc.c ****   * @param  RCC_SYSCLK: defines the AHB clock divider. This clock is derived from 
 595:../stm32f10x_fwlib/src/stm32f10x_rcc.c ****   *   the system clock (SYSCLK).
 596:../stm32f10x_fwlib/src/stm32f10x_rcc.c ****   *   This parameter can be one of the following values:
 597:../stm32f10x_fwlib/src/stm32f10x_rcc.c ****   *     @arg RCC_SYSCLK_Div1: AHB clock = SYSCLK
 598:../stm32f10x_fwlib/src/stm32f10x_rcc.c ****   *     @arg RCC_SYSCLK_Div2: AHB clock = SYSCLK/2
 599:../stm32f10x_fwlib/src/stm32f10x_rcc.c ****   *     @arg RCC_SYSCLK_Div4: AHB clock = SYSCLK/4
 600:../stm32f10x_fwlib/src/stm32f10x_rcc.c ****   *     @arg RCC_SYSCLK_Div8: AHB clock = SYSCLK/8
 601:../stm32f10x_fwlib/src/stm32f10x_rcc.c ****   *     @arg RCC_SYSCLK_Div16: AHB clock = SYSCLK/16
 602:../stm32f10x_fwlib/src/stm32f10x_rcc.c ****   *     @arg RCC_SYSCLK_Div64: AHB clock = SYSCLK/64
 603:../stm32f10x_fwlib/src/stm32f10x_rcc.c ****   *     @arg RCC_SYSCLK_Div128: AHB clock = SYSCLK/128
 604:../stm32f10x_fwlib/src/stm32f10x_rcc.c ****   *     @arg RCC_SYSCLK_Div256: AHB clock = SYSCLK/256
 605:../stm32f10x_fwlib/src/stm32f10x_rcc.c ****   *     @arg RCC_SYSCLK_Div512: AHB clock = SYSCLK/512
 606:../stm32f10x_fwlib/src/stm32f10x_rcc.c ****   * @retval None
 607:../stm32f10x_fwlib/src/stm32f10x_rcc.c ****   */
 608:../stm32f10x_fwlib/src/stm32f10x_rcc.c **** void RCC_HCLKConfig(uint32_t RCC_SYSCLK)
 609:../stm32f10x_fwlib/src/stm32f10x_rcc.c **** {
 359              		.loc 1 609 1 is_stmt 1 view -0
 360              		.cfi_startproc
 361              		@ args = 0, pretend = 0, frame = 0
 362              		@ frame_needed = 0, uses_anonymous_args = 0
 363              		@ link register save eliminated.
 610:../stm32f10x_fwlib/src/stm32f10x_rcc.c ****   uint32_t tmpreg = 0;
 364              		.loc 1 610 3 view .LVU81
 611:../stm32f10x_fwlib/src/stm32f10x_rcc.c ****   /* Check the parameters */
 612:../stm32f10x_fwlib/src/stm32f10x_rcc.c ****   assert_param(IS_RCC_HCLK(RCC_SYSCLK));
 365              		.loc 1 612 3 view .LVU82
 613:../stm32f10x_fwlib/src/stm32f10x_rcc.c ****   tmpreg = RCC->CFGR;
 366              		.loc 1 613 3 view .LVU83
 367              		.loc 1 613 10 is_stmt 0 view .LVU84
 368 0000 034A     		ldr	r2, .L29
 369 0002 5368     		ldr	r3, [r2, #4]
 370              	.LVL17:
 614:../stm32f10x_fwlib/src/stm32f10x_rcc.c ****   /* Clear HPRE[3:0] bits */
 615:../stm32f10x_fwlib/src/stm32f10x_rcc.c ****   tmpreg &= CFGR_HPRE_Reset_Mask;
 371              		.loc 1 615 3 is_stmt 1 view .LVU85
ARM GAS  C:\Users\28470\AppData\Local\Temp\ccvYo0xZ.s 			page 18


 372              		.loc 1 615 10 is_stmt 0 view .LVU86
 373 0004 23F0F003 		bic	r3, r3, #240
 374              	.LVL18:
 616:../stm32f10x_fwlib/src/stm32f10x_rcc.c ****   /* Set HPRE[3:0] bits according to RCC_SYSCLK value */
 617:../stm32f10x_fwlib/src/stm32f10x_rcc.c ****   tmpreg |= RCC_SYSCLK;
 375              		.loc 1 617 3 is_stmt 1 view .LVU87
 376              		.loc 1 617 10 is_stmt 0 view .LVU88
 377 0008 0343     		orrs	r3, r3, r0
 378              	.LVL19:
 618:../stm32f10x_fwlib/src/stm32f10x_rcc.c ****   /* Store the new value */
 619:../stm32f10x_fwlib/src/stm32f10x_rcc.c ****   RCC->CFGR = tmpreg;
 379              		.loc 1 619 3 is_stmt 1 view .LVU89
 380              		.loc 1 619 13 is_stmt 0 view .LVU90
 381 000a 5360     		str	r3, [r2, #4]
 620:../stm32f10x_fwlib/src/stm32f10x_rcc.c **** }
 382              		.loc 1 620 1 view .LVU91
 383 000c 7047     		bx	lr
 384              	.L30:
 385 000e 00BF     		.align	2
 386              	.L29:
 387 0010 00100240 		.word	1073876992
 388              		.cfi_endproc
 389              	.LFE38:
 391              		.section	.text.RCC_PCLK1Config,"ax",%progbits
 392              		.align	1
 393              		.global	RCC_PCLK1Config
 394              		.syntax unified
 395              		.thumb
 396              		.thumb_func
 398              	RCC_PCLK1Config:
 399              	.LVL20:
 400              	.LFB39:
 621:../stm32f10x_fwlib/src/stm32f10x_rcc.c **** 
 622:../stm32f10x_fwlib/src/stm32f10x_rcc.c **** /**
 623:../stm32f10x_fwlib/src/stm32f10x_rcc.c ****   * @brief  Configures the Low Speed APB clock (PCLK1).
 624:../stm32f10x_fwlib/src/stm32f10x_rcc.c ****   * @param  RCC_HCLK: defines the APB1 clock divider. This clock is derived from 
 625:../stm32f10x_fwlib/src/stm32f10x_rcc.c ****   *   the AHB clock (HCLK).
 626:../stm32f10x_fwlib/src/stm32f10x_rcc.c ****   *   This parameter can be one of the following values:
 627:../stm32f10x_fwlib/src/stm32f10x_rcc.c ****   *     @arg RCC_HCLK_Div1: APB1 clock = HCLK
 628:../stm32f10x_fwlib/src/stm32f10x_rcc.c ****   *     @arg RCC_HCLK_Div2: APB1 clock = HCLK/2
 629:../stm32f10x_fwlib/src/stm32f10x_rcc.c ****   *     @arg RCC_HCLK_Div4: APB1 clock = HCLK/4
 630:../stm32f10x_fwlib/src/stm32f10x_rcc.c ****   *     @arg RCC_HCLK_Div8: APB1 clock = HCLK/8
 631:../stm32f10x_fwlib/src/stm32f10x_rcc.c ****   *     @arg RCC_HCLK_Div16: APB1 clock = HCLK/16
 632:../stm32f10x_fwlib/src/stm32f10x_rcc.c ****   * @retval None
 633:../stm32f10x_fwlib/src/stm32f10x_rcc.c ****   */
 634:../stm32f10x_fwlib/src/stm32f10x_rcc.c **** void RCC_PCLK1Config(uint32_t RCC_HCLK)
 635:../stm32f10x_fwlib/src/stm32f10x_rcc.c **** {
 401              		.loc 1 635 1 is_stmt 1 view -0
 402              		.cfi_startproc
 403              		@ args = 0, pretend = 0, frame = 0
 404              		@ frame_needed = 0, uses_anonymous_args = 0
 405              		@ link register save eliminated.
 636:../stm32f10x_fwlib/src/stm32f10x_rcc.c ****   uint32_t tmpreg = 0;
 406              		.loc 1 636 3 view .LVU93
 637:../stm32f10x_fwlib/src/stm32f10x_rcc.c ****   /* Check the parameters */
 638:../stm32f10x_fwlib/src/stm32f10x_rcc.c ****   assert_param(IS_RCC_PCLK(RCC_HCLK));
 407              		.loc 1 638 3 view .LVU94
ARM GAS  C:\Users\28470\AppData\Local\Temp\ccvYo0xZ.s 			page 19


 639:../stm32f10x_fwlib/src/stm32f10x_rcc.c ****   tmpreg = RCC->CFGR;
 408              		.loc 1 639 3 view .LVU95
 409              		.loc 1 639 10 is_stmt 0 view .LVU96
 410 0000 034A     		ldr	r2, .L32
 411 0002 5368     		ldr	r3, [r2, #4]
 412              	.LVL21:
 640:../stm32f10x_fwlib/src/stm32f10x_rcc.c ****   /* Clear PPRE1[2:0] bits */
 641:../stm32f10x_fwlib/src/stm32f10x_rcc.c ****   tmpreg &= CFGR_PPRE1_Reset_Mask;
 413              		.loc 1 641 3 is_stmt 1 view .LVU97
 414              		.loc 1 641 10 is_stmt 0 view .LVU98
 415 0004 23F4E063 		bic	r3, r3, #1792
 416              	.LVL22:
 642:../stm32f10x_fwlib/src/stm32f10x_rcc.c ****   /* Set PPRE1[2:0] bits according to RCC_HCLK value */
 643:../stm32f10x_fwlib/src/stm32f10x_rcc.c ****   tmpreg |= RCC_HCLK;
 417              		.loc 1 643 3 is_stmt 1 view .LVU99
 418              		.loc 1 643 10 is_stmt 0 view .LVU100
 419 0008 0343     		orrs	r3, r3, r0
 420              	.LVL23:
 644:../stm32f10x_fwlib/src/stm32f10x_rcc.c ****   /* Store the new value */
 645:../stm32f10x_fwlib/src/stm32f10x_rcc.c ****   RCC->CFGR = tmpreg;
 421              		.loc 1 645 3 is_stmt 1 view .LVU101
 422              		.loc 1 645 13 is_stmt 0 view .LVU102
 423 000a 5360     		str	r3, [r2, #4]
 646:../stm32f10x_fwlib/src/stm32f10x_rcc.c **** }
 424              		.loc 1 646 1 view .LVU103
 425 000c 7047     		bx	lr
 426              	.L33:
 427 000e 00BF     		.align	2
 428              	.L32:
 429 0010 00100240 		.word	1073876992
 430              		.cfi_endproc
 431              	.LFE39:
 433              		.section	.text.RCC_PCLK2Config,"ax",%progbits
 434              		.align	1
 435              		.global	RCC_PCLK2Config
 436              		.syntax unified
 437              		.thumb
 438              		.thumb_func
 440              	RCC_PCLK2Config:
 441              	.LVL24:
 442              	.LFB40:
 647:../stm32f10x_fwlib/src/stm32f10x_rcc.c **** 
 648:../stm32f10x_fwlib/src/stm32f10x_rcc.c **** /**
 649:../stm32f10x_fwlib/src/stm32f10x_rcc.c ****   * @brief  Configures the High Speed APB clock (PCLK2).
 650:../stm32f10x_fwlib/src/stm32f10x_rcc.c ****   * @param  RCC_HCLK: defines the APB2 clock divider. This clock is derived from 
 651:../stm32f10x_fwlib/src/stm32f10x_rcc.c ****   *   the AHB clock (HCLK).
 652:../stm32f10x_fwlib/src/stm32f10x_rcc.c ****   *   This parameter can be one of the following values:
 653:../stm32f10x_fwlib/src/stm32f10x_rcc.c ****   *     @arg RCC_HCLK_Div1: APB2 clock = HCLK
 654:../stm32f10x_fwlib/src/stm32f10x_rcc.c ****   *     @arg RCC_HCLK_Div2: APB2 clock = HCLK/2
 655:../stm32f10x_fwlib/src/stm32f10x_rcc.c ****   *     @arg RCC_HCLK_Div4: APB2 clock = HCLK/4
 656:../stm32f10x_fwlib/src/stm32f10x_rcc.c ****   *     @arg RCC_HCLK_Div8: APB2 clock = HCLK/8
 657:../stm32f10x_fwlib/src/stm32f10x_rcc.c ****   *     @arg RCC_HCLK_Div16: APB2 clock = HCLK/16
 658:../stm32f10x_fwlib/src/stm32f10x_rcc.c ****   * @retval None
 659:../stm32f10x_fwlib/src/stm32f10x_rcc.c ****   */
 660:../stm32f10x_fwlib/src/stm32f10x_rcc.c **** void RCC_PCLK2Config(uint32_t RCC_HCLK)
 661:../stm32f10x_fwlib/src/stm32f10x_rcc.c **** {
 443              		.loc 1 661 1 is_stmt 1 view -0
ARM GAS  C:\Users\28470\AppData\Local\Temp\ccvYo0xZ.s 			page 20


 444              		.cfi_startproc
 445              		@ args = 0, pretend = 0, frame = 0
 446              		@ frame_needed = 0, uses_anonymous_args = 0
 447              		@ link register save eliminated.
 662:../stm32f10x_fwlib/src/stm32f10x_rcc.c ****   uint32_t tmpreg = 0;
 448              		.loc 1 662 3 view .LVU105
 663:../stm32f10x_fwlib/src/stm32f10x_rcc.c ****   /* Check the parameters */
 664:../stm32f10x_fwlib/src/stm32f10x_rcc.c ****   assert_param(IS_RCC_PCLK(RCC_HCLK));
 449              		.loc 1 664 3 view .LVU106
 665:../stm32f10x_fwlib/src/stm32f10x_rcc.c ****   tmpreg = RCC->CFGR;
 450              		.loc 1 665 3 view .LVU107
 451              		.loc 1 665 10 is_stmt 0 view .LVU108
 452 0000 034A     		ldr	r2, .L35
 453 0002 5368     		ldr	r3, [r2, #4]
 454              	.LVL25:
 666:../stm32f10x_fwlib/src/stm32f10x_rcc.c ****   /* Clear PPRE2[2:0] bits */
 667:../stm32f10x_fwlib/src/stm32f10x_rcc.c ****   tmpreg &= CFGR_PPRE2_Reset_Mask;
 455              		.loc 1 667 3 is_stmt 1 view .LVU109
 456              		.loc 1 667 10 is_stmt 0 view .LVU110
 457 0004 23F46053 		bic	r3, r3, #14336
 458              	.LVL26:
 668:../stm32f10x_fwlib/src/stm32f10x_rcc.c ****   /* Set PPRE2[2:0] bits according to RCC_HCLK value */
 669:../stm32f10x_fwlib/src/stm32f10x_rcc.c ****   tmpreg |= RCC_HCLK << 3;
 459              		.loc 1 669 3 is_stmt 1 view .LVU111
 460              		.loc 1 669 10 is_stmt 0 view .LVU112
 461 0008 43EAC003 		orr	r3, r3, r0, lsl #3
 462              	.LVL27:
 670:../stm32f10x_fwlib/src/stm32f10x_rcc.c ****   /* Store the new value */
 671:../stm32f10x_fwlib/src/stm32f10x_rcc.c ****   RCC->CFGR = tmpreg;
 463              		.loc 1 671 3 is_stmt 1 view .LVU113
 464              		.loc 1 671 13 is_stmt 0 view .LVU114
 465 000c 5360     		str	r3, [r2, #4]
 672:../stm32f10x_fwlib/src/stm32f10x_rcc.c **** }
 466              		.loc 1 672 1 view .LVU115
 467 000e 7047     		bx	lr
 468              	.L36:
 469              		.align	2
 470              	.L35:
 471 0010 00100240 		.word	1073876992
 472              		.cfi_endproc
 473              	.LFE40:
 475              		.section	.text.RCC_ITConfig,"ax",%progbits
 476              		.align	1
 477              		.global	RCC_ITConfig
 478              		.syntax unified
 479              		.thumb
 480              		.thumb_func
 482              	RCC_ITConfig:
 483              	.LVL28:
 484              	.LFB41:
 673:../stm32f10x_fwlib/src/stm32f10x_rcc.c **** 
 674:../stm32f10x_fwlib/src/stm32f10x_rcc.c **** /**
 675:../stm32f10x_fwlib/src/stm32f10x_rcc.c ****   * @brief  Enables or disables the specified RCC interrupts.
 676:../stm32f10x_fwlib/src/stm32f10x_rcc.c ****   * @param  RCC_IT: specifies the RCC interrupt sources to be enabled or disabled.
 677:../stm32f10x_fwlib/src/stm32f10x_rcc.c ****   * 
 678:../stm32f10x_fwlib/src/stm32f10x_rcc.c ****   *   For @b STM32_Connectivity_line_devices, this parameter can be any combination
 679:../stm32f10x_fwlib/src/stm32f10x_rcc.c ****   *   of the following values        
ARM GAS  C:\Users\28470\AppData\Local\Temp\ccvYo0xZ.s 			page 21


 680:../stm32f10x_fwlib/src/stm32f10x_rcc.c ****   *     @arg RCC_IT_LSIRDY: LSI ready interrupt
 681:../stm32f10x_fwlib/src/stm32f10x_rcc.c ****   *     @arg RCC_IT_LSERDY: LSE ready interrupt
 682:../stm32f10x_fwlib/src/stm32f10x_rcc.c ****   *     @arg RCC_IT_HSIRDY: HSI ready interrupt
 683:../stm32f10x_fwlib/src/stm32f10x_rcc.c ****   *     @arg RCC_IT_HSERDY: HSE ready interrupt
 684:../stm32f10x_fwlib/src/stm32f10x_rcc.c ****   *     @arg RCC_IT_PLLRDY: PLL ready interrupt
 685:../stm32f10x_fwlib/src/stm32f10x_rcc.c ****   *     @arg RCC_IT_PLL2RDY: PLL2 ready interrupt
 686:../stm32f10x_fwlib/src/stm32f10x_rcc.c ****   *     @arg RCC_IT_PLL3RDY: PLL3 ready interrupt
 687:../stm32f10x_fwlib/src/stm32f10x_rcc.c ****   * 
 688:../stm32f10x_fwlib/src/stm32f10x_rcc.c ****   *   For @b other_STM32_devices, this parameter can be any combination of the 
 689:../stm32f10x_fwlib/src/stm32f10x_rcc.c ****   *   following values        
 690:../stm32f10x_fwlib/src/stm32f10x_rcc.c ****   *     @arg RCC_IT_LSIRDY: LSI ready interrupt
 691:../stm32f10x_fwlib/src/stm32f10x_rcc.c ****   *     @arg RCC_IT_LSERDY: LSE ready interrupt
 692:../stm32f10x_fwlib/src/stm32f10x_rcc.c ****   *     @arg RCC_IT_HSIRDY: HSI ready interrupt
 693:../stm32f10x_fwlib/src/stm32f10x_rcc.c ****   *     @arg RCC_IT_HSERDY: HSE ready interrupt
 694:../stm32f10x_fwlib/src/stm32f10x_rcc.c ****   *     @arg RCC_IT_PLLRDY: PLL ready interrupt
 695:../stm32f10x_fwlib/src/stm32f10x_rcc.c ****   *       
 696:../stm32f10x_fwlib/src/stm32f10x_rcc.c ****   * @param  NewState: new state of the specified RCC interrupts.
 697:../stm32f10x_fwlib/src/stm32f10x_rcc.c ****   *   This parameter can be: ENABLE or DISABLE.
 698:../stm32f10x_fwlib/src/stm32f10x_rcc.c ****   * @retval None
 699:../stm32f10x_fwlib/src/stm32f10x_rcc.c ****   */
 700:../stm32f10x_fwlib/src/stm32f10x_rcc.c **** void RCC_ITConfig(uint8_t RCC_IT, FunctionalState NewState)
 701:../stm32f10x_fwlib/src/stm32f10x_rcc.c **** {
 485              		.loc 1 701 1 is_stmt 1 view -0
 486              		.cfi_startproc
 487              		@ args = 0, pretend = 0, frame = 0
 488              		@ frame_needed = 0, uses_anonymous_args = 0
 489              		@ link register save eliminated.
 702:../stm32f10x_fwlib/src/stm32f10x_rcc.c ****   /* Check the parameters */
 703:../stm32f10x_fwlib/src/stm32f10x_rcc.c ****   assert_param(IS_RCC_IT(RCC_IT));
 490              		.loc 1 703 3 view .LVU117
 704:../stm32f10x_fwlib/src/stm32f10x_rcc.c ****   assert_param(IS_FUNCTIONAL_STATE(NewState));
 491              		.loc 1 704 3 view .LVU118
 705:../stm32f10x_fwlib/src/stm32f10x_rcc.c ****   if (NewState != DISABLE)
 492              		.loc 1 705 3 view .LVU119
 493              		.loc 1 705 6 is_stmt 0 view .LVU120
 494 0000 21B1     		cbz	r1, .L38
 706:../stm32f10x_fwlib/src/stm32f10x_rcc.c ****   {
 707:../stm32f10x_fwlib/src/stm32f10x_rcc.c ****     /* Perform Byte access to RCC_CIR bits to enable the selected interrupts */
 708:../stm32f10x_fwlib/src/stm32f10x_rcc.c ****     *(__IO uint8_t *) CIR_BYTE2_ADDRESS |= RCC_IT;
 495              		.loc 1 708 5 is_stmt 1 view .LVU121
 496              		.loc 1 708 41 is_stmt 0 view .LVU122
 497 0002 054A     		ldr	r2, .L40
 498 0004 537A     		ldrb	r3, [r2, #9]	@ zero_extendqisi2
 499 0006 1843     		orrs	r0, r0, r3
 500              	.LVL29:
 501              		.loc 1 708 41 view .LVU123
 502 0008 5072     		strb	r0, [r2, #9]
 503 000a 7047     		bx	lr
 504              	.LVL30:
 505              	.L38:
 709:../stm32f10x_fwlib/src/stm32f10x_rcc.c ****   }
 710:../stm32f10x_fwlib/src/stm32f10x_rcc.c ****   else
 711:../stm32f10x_fwlib/src/stm32f10x_rcc.c ****   {
 712:../stm32f10x_fwlib/src/stm32f10x_rcc.c ****     /* Perform Byte access to RCC_CIR bits to disable the selected interrupts */
 713:../stm32f10x_fwlib/src/stm32f10x_rcc.c ****     *(__IO uint8_t *) CIR_BYTE2_ADDRESS &= (uint8_t)~RCC_IT;
 506              		.loc 1 713 5 is_stmt 1 view .LVU124
 507              		.loc 1 713 41 is_stmt 0 view .LVU125
ARM GAS  C:\Users\28470\AppData\Local\Temp\ccvYo0xZ.s 			page 22


 508 000c 024A     		ldr	r2, .L40
 509 000e 537A     		ldrb	r3, [r2, #9]	@ zero_extendqisi2
 510 0010 23EA0000 		bic	r0, r3, r0
 511              	.LVL31:
 512              		.loc 1 713 41 view .LVU126
 513 0014 5072     		strb	r0, [r2, #9]
 714:../stm32f10x_fwlib/src/stm32f10x_rcc.c ****   }
 715:../stm32f10x_fwlib/src/stm32f10x_rcc.c **** }
 514              		.loc 1 715 1 view .LVU127
 515 0016 7047     		bx	lr
 516              	.L41:
 517              		.align	2
 518              	.L40:
 519 0018 00100240 		.word	1073876992
 520              		.cfi_endproc
 521              	.LFE41:
 523              		.section	.text.RCC_USBCLKConfig,"ax",%progbits
 524              		.align	1
 525              		.global	RCC_USBCLKConfig
 526              		.syntax unified
 527              		.thumb
 528              		.thumb_func
 530              	RCC_USBCLKConfig:
 531              	.LVL32:
 532              	.LFB42:
 716:../stm32f10x_fwlib/src/stm32f10x_rcc.c **** 
 717:../stm32f10x_fwlib/src/stm32f10x_rcc.c **** #ifndef STM32F10X_CL
 718:../stm32f10x_fwlib/src/stm32f10x_rcc.c **** /**
 719:../stm32f10x_fwlib/src/stm32f10x_rcc.c ****   * @brief  Configures the USB clock (USBCLK).
 720:../stm32f10x_fwlib/src/stm32f10x_rcc.c ****   * @param  RCC_USBCLKSource: specifies the USB clock source. This clock is 
 721:../stm32f10x_fwlib/src/stm32f10x_rcc.c ****   *   derived from the PLL output.
 722:../stm32f10x_fwlib/src/stm32f10x_rcc.c ****   *   This parameter can be one of the following values:
 723:../stm32f10x_fwlib/src/stm32f10x_rcc.c ****   *     @arg RCC_USBCLKSource_PLLCLK_1Div5: PLL clock divided by 1,5 selected as USB 
 724:../stm32f10x_fwlib/src/stm32f10x_rcc.c ****   *                                     clock source
 725:../stm32f10x_fwlib/src/stm32f10x_rcc.c ****   *     @arg RCC_USBCLKSource_PLLCLK_Div1: PLL clock selected as USB clock source
 726:../stm32f10x_fwlib/src/stm32f10x_rcc.c ****   * @retval None
 727:../stm32f10x_fwlib/src/stm32f10x_rcc.c ****   */
 728:../stm32f10x_fwlib/src/stm32f10x_rcc.c **** void RCC_USBCLKConfig(uint32_t RCC_USBCLKSource)
 729:../stm32f10x_fwlib/src/stm32f10x_rcc.c **** {
 533              		.loc 1 729 1 is_stmt 1 view -0
 534              		.cfi_startproc
 535              		@ args = 0, pretend = 0, frame = 0
 536              		@ frame_needed = 0, uses_anonymous_args = 0
 537              		@ link register save eliminated.
 730:../stm32f10x_fwlib/src/stm32f10x_rcc.c ****   /* Check the parameters */
 731:../stm32f10x_fwlib/src/stm32f10x_rcc.c ****   assert_param(IS_RCC_USBCLK_SOURCE(RCC_USBCLKSource));
 538              		.loc 1 731 3 view .LVU129
 732:../stm32f10x_fwlib/src/stm32f10x_rcc.c **** 
 733:../stm32f10x_fwlib/src/stm32f10x_rcc.c ****   *(__IO uint32_t *) CFGR_USBPRE_BB = RCC_USBCLKSource;
 539              		.loc 1 733 3 view .LVU130
 540              		.loc 1 733 37 is_stmt 0 view .LVU131
 541 0000 014B     		ldr	r3, .L43
 542 0002 C3F8D800 		str	r0, [r3, #216]
 734:../stm32f10x_fwlib/src/stm32f10x_rcc.c **** }
 543              		.loc 1 734 1 view .LVU132
 544 0006 7047     		bx	lr
 545              	.L44:
ARM GAS  C:\Users\28470\AppData\Local\Temp\ccvYo0xZ.s 			page 23


 546              		.align	2
 547              	.L43:
 548 0008 00004242 		.word	1111621632
 549              		.cfi_endproc
 550              	.LFE42:
 552              		.section	.text.RCC_ADCCLKConfig,"ax",%progbits
 553              		.align	1
 554              		.global	RCC_ADCCLKConfig
 555              		.syntax unified
 556              		.thumb
 557              		.thumb_func
 559              	RCC_ADCCLKConfig:
 560              	.LVL33:
 561              	.LFB43:
 735:../stm32f10x_fwlib/src/stm32f10x_rcc.c **** #else
 736:../stm32f10x_fwlib/src/stm32f10x_rcc.c **** /**
 737:../stm32f10x_fwlib/src/stm32f10x_rcc.c ****   * @brief  Configures the USB OTG FS clock (OTGFSCLK).
 738:../stm32f10x_fwlib/src/stm32f10x_rcc.c ****   *   This function applies only to STM32 Connectivity line devices.
 739:../stm32f10x_fwlib/src/stm32f10x_rcc.c ****   * @param  RCC_OTGFSCLKSource: specifies the USB OTG FS clock source.
 740:../stm32f10x_fwlib/src/stm32f10x_rcc.c ****   *   This clock is derived from the PLL output.
 741:../stm32f10x_fwlib/src/stm32f10x_rcc.c ****   *   This parameter can be one of the following values:
 742:../stm32f10x_fwlib/src/stm32f10x_rcc.c ****   *     @arg  RCC_OTGFSCLKSource_PLLVCO_Div3: PLL VCO clock divided by 2 selected as USB OTG FS clo
 743:../stm32f10x_fwlib/src/stm32f10x_rcc.c ****   *     @arg  RCC_OTGFSCLKSource_PLLVCO_Div2: PLL VCO clock divided by 2 selected as USB OTG FS clo
 744:../stm32f10x_fwlib/src/stm32f10x_rcc.c ****   * @retval None
 745:../stm32f10x_fwlib/src/stm32f10x_rcc.c ****   */
 746:../stm32f10x_fwlib/src/stm32f10x_rcc.c **** void RCC_OTGFSCLKConfig(uint32_t RCC_OTGFSCLKSource)
 747:../stm32f10x_fwlib/src/stm32f10x_rcc.c **** {
 748:../stm32f10x_fwlib/src/stm32f10x_rcc.c ****   /* Check the parameters */
 749:../stm32f10x_fwlib/src/stm32f10x_rcc.c ****   assert_param(IS_RCC_OTGFSCLK_SOURCE(RCC_OTGFSCLKSource));
 750:../stm32f10x_fwlib/src/stm32f10x_rcc.c **** 
 751:../stm32f10x_fwlib/src/stm32f10x_rcc.c ****   *(__IO uint32_t *) CFGR_OTGFSPRE_BB = RCC_OTGFSCLKSource;
 752:../stm32f10x_fwlib/src/stm32f10x_rcc.c **** }
 753:../stm32f10x_fwlib/src/stm32f10x_rcc.c **** #endif /* STM32F10X_CL */ 
 754:../stm32f10x_fwlib/src/stm32f10x_rcc.c **** 
 755:../stm32f10x_fwlib/src/stm32f10x_rcc.c **** /**
 756:../stm32f10x_fwlib/src/stm32f10x_rcc.c ****   * @brief  Configures the ADC clock (ADCCLK).
 757:../stm32f10x_fwlib/src/stm32f10x_rcc.c ****   * @param  RCC_PCLK2: defines the ADC clock divider. This clock is derived from 
 758:../stm32f10x_fwlib/src/stm32f10x_rcc.c ****   *   the APB2 clock (PCLK2).
 759:../stm32f10x_fwlib/src/stm32f10x_rcc.c ****   *   This parameter can be one of the following values:
 760:../stm32f10x_fwlib/src/stm32f10x_rcc.c ****   *     @arg RCC_PCLK2_Div2: ADC clock = PCLK2/2
 761:../stm32f10x_fwlib/src/stm32f10x_rcc.c ****   *     @arg RCC_PCLK2_Div4: ADC clock = PCLK2/4
 762:../stm32f10x_fwlib/src/stm32f10x_rcc.c ****   *     @arg RCC_PCLK2_Div6: ADC clock = PCLK2/6
 763:../stm32f10x_fwlib/src/stm32f10x_rcc.c ****   *     @arg RCC_PCLK2_Div8: ADC clock = PCLK2/8
 764:../stm32f10x_fwlib/src/stm32f10x_rcc.c ****   * @retval None
 765:../stm32f10x_fwlib/src/stm32f10x_rcc.c ****   */
 766:../stm32f10x_fwlib/src/stm32f10x_rcc.c **** void RCC_ADCCLKConfig(uint32_t RCC_PCLK2)
 767:../stm32f10x_fwlib/src/stm32f10x_rcc.c **** {
 562              		.loc 1 767 1 is_stmt 1 view -0
 563              		.cfi_startproc
 564              		@ args = 0, pretend = 0, frame = 0
 565              		@ frame_needed = 0, uses_anonymous_args = 0
 566              		@ link register save eliminated.
 768:../stm32f10x_fwlib/src/stm32f10x_rcc.c ****   uint32_t tmpreg = 0;
 567              		.loc 1 768 3 view .LVU134
 769:../stm32f10x_fwlib/src/stm32f10x_rcc.c ****   /* Check the parameters */
 770:../stm32f10x_fwlib/src/stm32f10x_rcc.c ****   assert_param(IS_RCC_ADCCLK(RCC_PCLK2));
 568              		.loc 1 770 3 view .LVU135
ARM GAS  C:\Users\28470\AppData\Local\Temp\ccvYo0xZ.s 			page 24


 771:../stm32f10x_fwlib/src/stm32f10x_rcc.c ****   tmpreg = RCC->CFGR;
 569              		.loc 1 771 3 view .LVU136
 570              		.loc 1 771 10 is_stmt 0 view .LVU137
 571 0000 034A     		ldr	r2, .L46
 572 0002 5368     		ldr	r3, [r2, #4]
 573              	.LVL34:
 772:../stm32f10x_fwlib/src/stm32f10x_rcc.c ****   /* Clear ADCPRE[1:0] bits */
 773:../stm32f10x_fwlib/src/stm32f10x_rcc.c ****   tmpreg &= CFGR_ADCPRE_Reset_Mask;
 574              		.loc 1 773 3 is_stmt 1 view .LVU138
 575              		.loc 1 773 10 is_stmt 0 view .LVU139
 576 0004 23F44043 		bic	r3, r3, #49152
 577              	.LVL35:
 774:../stm32f10x_fwlib/src/stm32f10x_rcc.c ****   /* Set ADCPRE[1:0] bits according to RCC_PCLK2 value */
 775:../stm32f10x_fwlib/src/stm32f10x_rcc.c ****   tmpreg |= RCC_PCLK2;
 578              		.loc 1 775 3 is_stmt 1 view .LVU140
 579              		.loc 1 775 10 is_stmt 0 view .LVU141
 580 0008 0343     		orrs	r3, r3, r0
 581              	.LVL36:
 776:../stm32f10x_fwlib/src/stm32f10x_rcc.c ****   /* Store the new value */
 777:../stm32f10x_fwlib/src/stm32f10x_rcc.c ****   RCC->CFGR = tmpreg;
 582              		.loc 1 777 3 is_stmt 1 view .LVU142
 583              		.loc 1 777 13 is_stmt 0 view .LVU143
 584 000a 5360     		str	r3, [r2, #4]
 778:../stm32f10x_fwlib/src/stm32f10x_rcc.c **** }
 585              		.loc 1 778 1 view .LVU144
 586 000c 7047     		bx	lr
 587              	.L47:
 588 000e 00BF     		.align	2
 589              	.L46:
 590 0010 00100240 		.word	1073876992
 591              		.cfi_endproc
 592              	.LFE43:
 594              		.section	.text.RCC_LSEConfig,"ax",%progbits
 595              		.align	1
 596              		.global	RCC_LSEConfig
 597              		.syntax unified
 598              		.thumb
 599              		.thumb_func
 601              	RCC_LSEConfig:
 602              	.LVL37:
 603              	.LFB44:
 779:../stm32f10x_fwlib/src/stm32f10x_rcc.c **** 
 780:../stm32f10x_fwlib/src/stm32f10x_rcc.c **** #ifdef STM32F10X_CL
 781:../stm32f10x_fwlib/src/stm32f10x_rcc.c **** /**
 782:../stm32f10x_fwlib/src/stm32f10x_rcc.c ****   * @brief  Configures the I2S2 clock source(I2S2CLK).
 783:../stm32f10x_fwlib/src/stm32f10x_rcc.c ****   * @note
 784:../stm32f10x_fwlib/src/stm32f10x_rcc.c ****   *   - This function must be called before enabling I2S2 APB clock.
 785:../stm32f10x_fwlib/src/stm32f10x_rcc.c ****   *   - This function applies only to STM32 Connectivity line devices.
 786:../stm32f10x_fwlib/src/stm32f10x_rcc.c ****   * @param  RCC_I2S2CLKSource: specifies the I2S2 clock source.
 787:../stm32f10x_fwlib/src/stm32f10x_rcc.c ****   *   This parameter can be one of the following values:
 788:../stm32f10x_fwlib/src/stm32f10x_rcc.c ****   *     @arg RCC_I2S2CLKSource_SYSCLK: system clock selected as I2S2 clock entry
 789:../stm32f10x_fwlib/src/stm32f10x_rcc.c ****   *     @arg RCC_I2S2CLKSource_PLL3_VCO: PLL3 VCO clock selected as I2S2 clock entry
 790:../stm32f10x_fwlib/src/stm32f10x_rcc.c ****   * @retval None
 791:../stm32f10x_fwlib/src/stm32f10x_rcc.c ****   */
 792:../stm32f10x_fwlib/src/stm32f10x_rcc.c **** void RCC_I2S2CLKConfig(uint32_t RCC_I2S2CLKSource)
 793:../stm32f10x_fwlib/src/stm32f10x_rcc.c **** {
 794:../stm32f10x_fwlib/src/stm32f10x_rcc.c ****   /* Check the parameters */
ARM GAS  C:\Users\28470\AppData\Local\Temp\ccvYo0xZ.s 			page 25


 795:../stm32f10x_fwlib/src/stm32f10x_rcc.c ****   assert_param(IS_RCC_I2S2CLK_SOURCE(RCC_I2S2CLKSource));
 796:../stm32f10x_fwlib/src/stm32f10x_rcc.c **** 
 797:../stm32f10x_fwlib/src/stm32f10x_rcc.c ****   *(__IO uint32_t *) CFGR2_I2S2SRC_BB = RCC_I2S2CLKSource;
 798:../stm32f10x_fwlib/src/stm32f10x_rcc.c **** }
 799:../stm32f10x_fwlib/src/stm32f10x_rcc.c **** 
 800:../stm32f10x_fwlib/src/stm32f10x_rcc.c **** /**
 801:../stm32f10x_fwlib/src/stm32f10x_rcc.c ****   * @brief  Configures the I2S3 clock source(I2S2CLK).
 802:../stm32f10x_fwlib/src/stm32f10x_rcc.c ****   * @note
 803:../stm32f10x_fwlib/src/stm32f10x_rcc.c ****   *   - This function must be called before enabling I2S3 APB clock.
 804:../stm32f10x_fwlib/src/stm32f10x_rcc.c ****   *   - This function applies only to STM32 Connectivity line devices.
 805:../stm32f10x_fwlib/src/stm32f10x_rcc.c ****   * @param  RCC_I2S3CLKSource: specifies the I2S3 clock source.
 806:../stm32f10x_fwlib/src/stm32f10x_rcc.c ****   *   This parameter can be one of the following values:
 807:../stm32f10x_fwlib/src/stm32f10x_rcc.c ****   *     @arg RCC_I2S3CLKSource_SYSCLK: system clock selected as I2S3 clock entry
 808:../stm32f10x_fwlib/src/stm32f10x_rcc.c ****   *     @arg RCC_I2S3CLKSource_PLL3_VCO: PLL3 VCO clock selected as I2S3 clock entry
 809:../stm32f10x_fwlib/src/stm32f10x_rcc.c ****   * @retval None
 810:../stm32f10x_fwlib/src/stm32f10x_rcc.c ****   */
 811:../stm32f10x_fwlib/src/stm32f10x_rcc.c **** void RCC_I2S3CLKConfig(uint32_t RCC_I2S3CLKSource)
 812:../stm32f10x_fwlib/src/stm32f10x_rcc.c **** {
 813:../stm32f10x_fwlib/src/stm32f10x_rcc.c ****   /* Check the parameters */
 814:../stm32f10x_fwlib/src/stm32f10x_rcc.c ****   assert_param(IS_RCC_I2S3CLK_SOURCE(RCC_I2S3CLKSource));
 815:../stm32f10x_fwlib/src/stm32f10x_rcc.c **** 
 816:../stm32f10x_fwlib/src/stm32f10x_rcc.c ****   *(__IO uint32_t *) CFGR2_I2S3SRC_BB = RCC_I2S3CLKSource;
 817:../stm32f10x_fwlib/src/stm32f10x_rcc.c **** }
 818:../stm32f10x_fwlib/src/stm32f10x_rcc.c **** #endif /* STM32F10X_CL */
 819:../stm32f10x_fwlib/src/stm32f10x_rcc.c **** 
 820:../stm32f10x_fwlib/src/stm32f10x_rcc.c **** /**
 821:../stm32f10x_fwlib/src/stm32f10x_rcc.c ****   * @brief  Configures the External Low Speed oscillator (LSE).
 822:../stm32f10x_fwlib/src/stm32f10x_rcc.c ****   * @param  RCC_LSE: specifies the new state of the LSE.
 823:../stm32f10x_fwlib/src/stm32f10x_rcc.c ****   *   This parameter can be one of the following values:
 824:../stm32f10x_fwlib/src/stm32f10x_rcc.c ****   *     @arg RCC_LSE_OFF: LSE oscillator OFF
 825:../stm32f10x_fwlib/src/stm32f10x_rcc.c ****   *     @arg RCC_LSE_ON: LSE oscillator ON
 826:../stm32f10x_fwlib/src/stm32f10x_rcc.c ****   *     @arg RCC_LSE_Bypass: LSE oscillator bypassed with external clock
 827:../stm32f10x_fwlib/src/stm32f10x_rcc.c ****   * @retval None
 828:../stm32f10x_fwlib/src/stm32f10x_rcc.c ****   */
 829:../stm32f10x_fwlib/src/stm32f10x_rcc.c **** void RCC_LSEConfig(uint8_t RCC_LSE)
 830:../stm32f10x_fwlib/src/stm32f10x_rcc.c **** {
 604              		.loc 1 830 1 is_stmt 1 view -0
 605              		.cfi_startproc
 606              		@ args = 0, pretend = 0, frame = 0
 607              		@ frame_needed = 0, uses_anonymous_args = 0
 608              		@ link register save eliminated.
 831:../stm32f10x_fwlib/src/stm32f10x_rcc.c ****   /* Check the parameters */
 832:../stm32f10x_fwlib/src/stm32f10x_rcc.c ****   assert_param(IS_RCC_LSE(RCC_LSE));
 609              		.loc 1 832 3 view .LVU146
 833:../stm32f10x_fwlib/src/stm32f10x_rcc.c ****   /* Reset LSEON and LSEBYP bits before configuring the LSE ------------------*/
 834:../stm32f10x_fwlib/src/stm32f10x_rcc.c ****   /* Reset LSEON bit */
 835:../stm32f10x_fwlib/src/stm32f10x_rcc.c ****   *(__IO uint8_t *) BDCR_ADDRESS = RCC_LSE_OFF;
 610              		.loc 1 835 3 view .LVU147
 611              		.loc 1 835 34 is_stmt 0 view .LVU148
 612 0000 0A4B     		ldr	r3, .L52
 613 0002 0022     		movs	r2, #0
 614 0004 83F82020 		strb	r2, [r3, #32]
 836:../stm32f10x_fwlib/src/stm32f10x_rcc.c ****   /* Reset LSEBYP bit */
 837:../stm32f10x_fwlib/src/stm32f10x_rcc.c ****   *(__IO uint8_t *) BDCR_ADDRESS = RCC_LSE_OFF;
 615              		.loc 1 837 3 is_stmt 1 view .LVU149
 616              		.loc 1 837 34 is_stmt 0 view .LVU150
 617 0008 83F82020 		strb	r2, [r3, #32]
ARM GAS  C:\Users\28470\AppData\Local\Temp\ccvYo0xZ.s 			page 26


 838:../stm32f10x_fwlib/src/stm32f10x_rcc.c ****   /* Configure LSE (RCC_LSE_OFF is already covered by the code section above) */
 839:../stm32f10x_fwlib/src/stm32f10x_rcc.c ****   switch(RCC_LSE)
 618              		.loc 1 839 3 is_stmt 1 view .LVU151
 619 000c 0128     		cmp	r0, #1
 620 000e 02D0     		beq	.L49
 621 0010 0428     		cmp	r0, #4
 622 0012 05D0     		beq	.L50
 623 0014 7047     		bx	lr
 624              	.L49:
 840:../stm32f10x_fwlib/src/stm32f10x_rcc.c ****   {
 841:../stm32f10x_fwlib/src/stm32f10x_rcc.c ****     case RCC_LSE_ON:
 842:../stm32f10x_fwlib/src/stm32f10x_rcc.c ****       /* Set LSEON bit */
 843:../stm32f10x_fwlib/src/stm32f10x_rcc.c ****       *(__IO uint8_t *) BDCR_ADDRESS = RCC_LSE_ON;
 625              		.loc 1 843 7 view .LVU152
 626              		.loc 1 843 38 is_stmt 0 view .LVU153
 627 0016 054B     		ldr	r3, .L52
 628 0018 0122     		movs	r2, #1
 629 001a 83F82020 		strb	r2, [r3, #32]
 844:../stm32f10x_fwlib/src/stm32f10x_rcc.c ****       break;
 630              		.loc 1 844 7 is_stmt 1 view .LVU154
 631 001e 7047     		bx	lr
 632              	.L50:
 845:../stm32f10x_fwlib/src/stm32f10x_rcc.c ****       
 846:../stm32f10x_fwlib/src/stm32f10x_rcc.c ****     case RCC_LSE_Bypass:
 847:../stm32f10x_fwlib/src/stm32f10x_rcc.c ****       /* Set LSEBYP and LSEON bits */
 848:../stm32f10x_fwlib/src/stm32f10x_rcc.c ****       *(__IO uint8_t *) BDCR_ADDRESS = RCC_LSE_Bypass | RCC_LSE_ON;
 633              		.loc 1 848 7 view .LVU155
 634              		.loc 1 848 38 is_stmt 0 view .LVU156
 635 0020 024B     		ldr	r3, .L52
 636 0022 0522     		movs	r2, #5
 637 0024 83F82020 		strb	r2, [r3, #32]
 849:../stm32f10x_fwlib/src/stm32f10x_rcc.c ****       break;            
 638              		.loc 1 849 7 is_stmt 1 view .LVU157
 850:../stm32f10x_fwlib/src/stm32f10x_rcc.c ****       
 851:../stm32f10x_fwlib/src/stm32f10x_rcc.c ****     default:
 852:../stm32f10x_fwlib/src/stm32f10x_rcc.c ****       break;      
 853:../stm32f10x_fwlib/src/stm32f10x_rcc.c ****   }
 854:../stm32f10x_fwlib/src/stm32f10x_rcc.c **** }
 639              		.loc 1 854 1 is_stmt 0 view .LVU158
 640 0028 7047     		bx	lr
 641              	.L53:
 642 002a 00BF     		.align	2
 643              	.L52:
 644 002c 00100240 		.word	1073876992
 645              		.cfi_endproc
 646              	.LFE44:
 648              		.section	.text.RCC_LSICmd,"ax",%progbits
 649              		.align	1
 650              		.global	RCC_LSICmd
 651              		.syntax unified
 652              		.thumb
 653              		.thumb_func
 655              	RCC_LSICmd:
 656              	.LVL38:
 657              	.LFB45:
 855:../stm32f10x_fwlib/src/stm32f10x_rcc.c **** 
 856:../stm32f10x_fwlib/src/stm32f10x_rcc.c **** /**
ARM GAS  C:\Users\28470\AppData\Local\Temp\ccvYo0xZ.s 			page 27


 857:../stm32f10x_fwlib/src/stm32f10x_rcc.c ****   * @brief  Enables or disables the Internal Low Speed oscillator (LSI).
 858:../stm32f10x_fwlib/src/stm32f10x_rcc.c ****   * @note   LSI can not be disabled if the IWDG is running.
 859:../stm32f10x_fwlib/src/stm32f10x_rcc.c ****   * @param  NewState: new state of the LSI. This parameter can be: ENABLE or DISABLE.
 860:../stm32f10x_fwlib/src/stm32f10x_rcc.c ****   * @retval None
 861:../stm32f10x_fwlib/src/stm32f10x_rcc.c ****   */
 862:../stm32f10x_fwlib/src/stm32f10x_rcc.c **** void RCC_LSICmd(FunctionalState NewState)
 863:../stm32f10x_fwlib/src/stm32f10x_rcc.c **** {
 658              		.loc 1 863 1 is_stmt 1 view -0
 659              		.cfi_startproc
 660              		@ args = 0, pretend = 0, frame = 0
 661              		@ frame_needed = 0, uses_anonymous_args = 0
 662              		@ link register save eliminated.
 864:../stm32f10x_fwlib/src/stm32f10x_rcc.c ****   /* Check the parameters */
 865:../stm32f10x_fwlib/src/stm32f10x_rcc.c ****   assert_param(IS_FUNCTIONAL_STATE(NewState));
 663              		.loc 1 865 3 view .LVU160
 866:../stm32f10x_fwlib/src/stm32f10x_rcc.c ****   *(__IO uint32_t *) CSR_LSION_BB = (uint32_t)NewState;
 664              		.loc 1 866 3 view .LVU161
 665              		.loc 1 866 35 is_stmt 0 view .LVU162
 666 0000 014B     		ldr	r3, .L55
 667 0002 C3F88004 		str	r0, [r3, #1152]
 867:../stm32f10x_fwlib/src/stm32f10x_rcc.c **** }
 668              		.loc 1 867 1 view .LVU163
 669 0006 7047     		bx	lr
 670              	.L56:
 671              		.align	2
 672              	.L55:
 673 0008 00004242 		.word	1111621632
 674              		.cfi_endproc
 675              	.LFE45:
 677              		.section	.text.RCC_RTCCLKConfig,"ax",%progbits
 678              		.align	1
 679              		.global	RCC_RTCCLKConfig
 680              		.syntax unified
 681              		.thumb
 682              		.thumb_func
 684              	RCC_RTCCLKConfig:
 685              	.LVL39:
 686              	.LFB46:
 868:../stm32f10x_fwlib/src/stm32f10x_rcc.c **** 
 869:../stm32f10x_fwlib/src/stm32f10x_rcc.c **** /**
 870:../stm32f10x_fwlib/src/stm32f10x_rcc.c ****   * @brief  Configures the RTC clock (RTCCLK).
 871:../stm32f10x_fwlib/src/stm32f10x_rcc.c ****   * @note   Once the RTC clock is selected it can't be changed unless the Backup domain is reset.
 872:../stm32f10x_fwlib/src/stm32f10x_rcc.c ****   * @param  RCC_RTCCLKSource: specifies the RTC clock source.
 873:../stm32f10x_fwlib/src/stm32f10x_rcc.c ****   *   This parameter can be one of the following values:
 874:../stm32f10x_fwlib/src/stm32f10x_rcc.c ****   *     @arg RCC_RTCCLKSource_LSE: LSE selected as RTC clock
 875:../stm32f10x_fwlib/src/stm32f10x_rcc.c ****   *     @arg RCC_RTCCLKSource_LSI: LSI selected as RTC clock
 876:../stm32f10x_fwlib/src/stm32f10x_rcc.c ****   *     @arg RCC_RTCCLKSource_HSE_Div128: HSE clock divided by 128 selected as RTC clock
 877:../stm32f10x_fwlib/src/stm32f10x_rcc.c ****   * @retval None
 878:../stm32f10x_fwlib/src/stm32f10x_rcc.c ****   */
 879:../stm32f10x_fwlib/src/stm32f10x_rcc.c **** void RCC_RTCCLKConfig(uint32_t RCC_RTCCLKSource)
 880:../stm32f10x_fwlib/src/stm32f10x_rcc.c **** {
 687              		.loc 1 880 1 is_stmt 1 view -0
 688              		.cfi_startproc
 689              		@ args = 0, pretend = 0, frame = 0
 690              		@ frame_needed = 0, uses_anonymous_args = 0
 691              		@ link register save eliminated.
 881:../stm32f10x_fwlib/src/stm32f10x_rcc.c ****   /* Check the parameters */
ARM GAS  C:\Users\28470\AppData\Local\Temp\ccvYo0xZ.s 			page 28


 882:../stm32f10x_fwlib/src/stm32f10x_rcc.c ****   assert_param(IS_RCC_RTCCLK_SOURCE(RCC_RTCCLKSource));
 692              		.loc 1 882 3 view .LVU165
 883:../stm32f10x_fwlib/src/stm32f10x_rcc.c ****   /* Select the RTC clock source */
 884:../stm32f10x_fwlib/src/stm32f10x_rcc.c ****   RCC->BDCR |= RCC_RTCCLKSource;
 693              		.loc 1 884 3 view .LVU166
 694              		.loc 1 884 13 is_stmt 0 view .LVU167
 695 0000 024A     		ldr	r2, .L58
 696 0002 136A     		ldr	r3, [r2, #32]
 697 0004 0343     		orrs	r3, r3, r0
 698 0006 1362     		str	r3, [r2, #32]
 885:../stm32f10x_fwlib/src/stm32f10x_rcc.c **** }
 699              		.loc 1 885 1 view .LVU168
 700 0008 7047     		bx	lr
 701              	.L59:
 702 000a 00BF     		.align	2
 703              	.L58:
 704 000c 00100240 		.word	1073876992
 705              		.cfi_endproc
 706              	.LFE46:
 708              		.section	.text.RCC_RTCCLKCmd,"ax",%progbits
 709              		.align	1
 710              		.global	RCC_RTCCLKCmd
 711              		.syntax unified
 712              		.thumb
 713              		.thumb_func
 715              	RCC_RTCCLKCmd:
 716              	.LVL40:
 717              	.LFB47:
 886:../stm32f10x_fwlib/src/stm32f10x_rcc.c **** 
 887:../stm32f10x_fwlib/src/stm32f10x_rcc.c **** /**
 888:../stm32f10x_fwlib/src/stm32f10x_rcc.c ****   * @brief  Enables or disables the RTC clock.
 889:../stm32f10x_fwlib/src/stm32f10x_rcc.c ****   * @note   This function must be used only after the RTC clock was selected using the RCC_RTCCLKCo
 890:../stm32f10x_fwlib/src/stm32f10x_rcc.c ****   * @param  NewState: new state of the RTC clock. This parameter can be: ENABLE or DISABLE.
 891:../stm32f10x_fwlib/src/stm32f10x_rcc.c ****   * @retval None
 892:../stm32f10x_fwlib/src/stm32f10x_rcc.c ****   */
 893:../stm32f10x_fwlib/src/stm32f10x_rcc.c **** void RCC_RTCCLKCmd(FunctionalState NewState)
 894:../stm32f10x_fwlib/src/stm32f10x_rcc.c **** {
 718              		.loc 1 894 1 is_stmt 1 view -0
 719              		.cfi_startproc
 720              		@ args = 0, pretend = 0, frame = 0
 721              		@ frame_needed = 0, uses_anonymous_args = 0
 722              		@ link register save eliminated.
 895:../stm32f10x_fwlib/src/stm32f10x_rcc.c ****   /* Check the parameters */
 896:../stm32f10x_fwlib/src/stm32f10x_rcc.c ****   assert_param(IS_FUNCTIONAL_STATE(NewState));
 723              		.loc 1 896 3 view .LVU170
 897:../stm32f10x_fwlib/src/stm32f10x_rcc.c ****   *(__IO uint32_t *) BDCR_RTCEN_BB = (uint32_t)NewState;
 724              		.loc 1 897 3 view .LVU171
 725              		.loc 1 897 36 is_stmt 0 view .LVU172
 726 0000 014B     		ldr	r3, .L61
 727 0002 C3F83C04 		str	r0, [r3, #1084]
 898:../stm32f10x_fwlib/src/stm32f10x_rcc.c **** }
 728              		.loc 1 898 1 view .LVU173
 729 0006 7047     		bx	lr
 730              	.L62:
 731              		.align	2
 732              	.L61:
 733 0008 00004242 		.word	1111621632
ARM GAS  C:\Users\28470\AppData\Local\Temp\ccvYo0xZ.s 			page 29


 734              		.cfi_endproc
 735              	.LFE47:
 737              		.section	.text.RCC_GetClocksFreq,"ax",%progbits
 738              		.align	1
 739              		.global	RCC_GetClocksFreq
 740              		.syntax unified
 741              		.thumb
 742              		.thumb_func
 744              	RCC_GetClocksFreq:
 745              	.LVL41:
 746              	.LFB48:
 899:../stm32f10x_fwlib/src/stm32f10x_rcc.c **** 
 900:../stm32f10x_fwlib/src/stm32f10x_rcc.c **** /**
 901:../stm32f10x_fwlib/src/stm32f10x_rcc.c ****   * @brief  Returns the frequencies of different on chip clocks.
 902:../stm32f10x_fwlib/src/stm32f10x_rcc.c ****   * @param  RCC_Clocks: pointer to a RCC_ClocksTypeDef structure which will hold
 903:../stm32f10x_fwlib/src/stm32f10x_rcc.c ****   *         the clocks frequencies.
 904:../stm32f10x_fwlib/src/stm32f10x_rcc.c ****   * @note   The result of this function could be not correct when using 
 905:../stm32f10x_fwlib/src/stm32f10x_rcc.c ****   *         fractional value for HSE crystal.  
 906:../stm32f10x_fwlib/src/stm32f10x_rcc.c ****   * @retval None
 907:../stm32f10x_fwlib/src/stm32f10x_rcc.c ****   */
 908:../stm32f10x_fwlib/src/stm32f10x_rcc.c **** void RCC_GetClocksFreq(RCC_ClocksTypeDef* RCC_Clocks)
 909:../stm32f10x_fwlib/src/stm32f10x_rcc.c **** {
 747              		.loc 1 909 1 is_stmt 1 view -0
 748              		.cfi_startproc
 749              		@ args = 0, pretend = 0, frame = 0
 750              		@ frame_needed = 0, uses_anonymous_args = 0
 751              		@ link register save eliminated.
 752              		.loc 1 909 1 is_stmt 0 view .LVU175
 753 0000 10B4     		push	{r4}
 754              	.LCFI0:
 755              		.cfi_def_cfa_offset 4
 756              		.cfi_offset 4, -4
 910:../stm32f10x_fwlib/src/stm32f10x_rcc.c ****   uint32_t tmp = 0, pllmull = 0, pllsource = 0, presc = 0;
 757              		.loc 1 910 3 is_stmt 1 view .LVU176
 758              	.LVL42:
 911:../stm32f10x_fwlib/src/stm32f10x_rcc.c **** 
 912:../stm32f10x_fwlib/src/stm32f10x_rcc.c **** #ifdef  STM32F10X_CL
 913:../stm32f10x_fwlib/src/stm32f10x_rcc.c ****   uint32_t prediv1source = 0, prediv1factor = 0, prediv2factor = 0, pll2mull = 0;
 914:../stm32f10x_fwlib/src/stm32f10x_rcc.c **** #endif /* STM32F10X_CL */
 915:../stm32f10x_fwlib/src/stm32f10x_rcc.c **** 
 916:../stm32f10x_fwlib/src/stm32f10x_rcc.c **** #if defined (STM32F10X_LD_VL) || defined (STM32F10X_MD_VL) || defined (STM32F10X_HD_VL)
 917:../stm32f10x_fwlib/src/stm32f10x_rcc.c ****   uint32_t prediv1factor = 0;
 918:../stm32f10x_fwlib/src/stm32f10x_rcc.c **** #endif
 919:../stm32f10x_fwlib/src/stm32f10x_rcc.c ****     
 920:../stm32f10x_fwlib/src/stm32f10x_rcc.c ****   /* Get SYSCLK source -------------------------------------------------------*/
 921:../stm32f10x_fwlib/src/stm32f10x_rcc.c ****   tmp = RCC->CFGR & CFGR_SWS_Mask;
 759              		.loc 1 921 3 view .LVU177
 760              		.loc 1 921 12 is_stmt 0 view .LVU178
 761 0002 294B     		ldr	r3, .L72
 762 0004 5B68     		ldr	r3, [r3, #4]
 763              		.loc 1 921 7 view .LVU179
 764 0006 03F00C03 		and	r3, r3, #12
 765              	.LVL43:
 922:../stm32f10x_fwlib/src/stm32f10x_rcc.c ****   
 923:../stm32f10x_fwlib/src/stm32f10x_rcc.c ****   switch (tmp)
 766              		.loc 1 923 3 is_stmt 1 view .LVU180
 767 000a 042B     		cmp	r3, #4
ARM GAS  C:\Users\28470\AppData\Local\Temp\ccvYo0xZ.s 			page 30


 768 000c 2BD0     		beq	.L64
 769 000e 082B     		cmp	r3, #8
 770 0010 2CD0     		beq	.L65
 771 0012 13B1     		cbz	r3, .L71
 924:../stm32f10x_fwlib/src/stm32f10x_rcc.c ****   {
 925:../stm32f10x_fwlib/src/stm32f10x_rcc.c ****     case 0x00:  /* HSI used as system clock */
 926:../stm32f10x_fwlib/src/stm32f10x_rcc.c ****       RCC_Clocks->SYSCLK_Frequency = HSI_VALUE;
 927:../stm32f10x_fwlib/src/stm32f10x_rcc.c ****       break;
 928:../stm32f10x_fwlib/src/stm32f10x_rcc.c ****     case 0x04:  /* HSE used as system clock */
 929:../stm32f10x_fwlib/src/stm32f10x_rcc.c ****       RCC_Clocks->SYSCLK_Frequency = HSE_VALUE;
 930:../stm32f10x_fwlib/src/stm32f10x_rcc.c ****       break;
 931:../stm32f10x_fwlib/src/stm32f10x_rcc.c ****     case 0x08:  /* PLL used as system clock */
 932:../stm32f10x_fwlib/src/stm32f10x_rcc.c **** 
 933:../stm32f10x_fwlib/src/stm32f10x_rcc.c ****       /* Get PLL clock source and multiplication factor ----------------------*/
 934:../stm32f10x_fwlib/src/stm32f10x_rcc.c ****       pllmull = RCC->CFGR & CFGR_PLLMull_Mask;
 935:../stm32f10x_fwlib/src/stm32f10x_rcc.c ****       pllsource = RCC->CFGR & CFGR_PLLSRC_Mask;
 936:../stm32f10x_fwlib/src/stm32f10x_rcc.c ****       
 937:../stm32f10x_fwlib/src/stm32f10x_rcc.c **** #ifndef STM32F10X_CL      
 938:../stm32f10x_fwlib/src/stm32f10x_rcc.c ****       pllmull = ( pllmull >> 18) + 2;
 939:../stm32f10x_fwlib/src/stm32f10x_rcc.c ****       
 940:../stm32f10x_fwlib/src/stm32f10x_rcc.c ****       if (pllsource == 0x00)
 941:../stm32f10x_fwlib/src/stm32f10x_rcc.c ****       {/* HSI oscillator clock divided by 2 selected as PLL clock entry */
 942:../stm32f10x_fwlib/src/stm32f10x_rcc.c ****         RCC_Clocks->SYSCLK_Frequency = (HSI_VALUE >> 1) * pllmull;
 943:../stm32f10x_fwlib/src/stm32f10x_rcc.c ****       }
 944:../stm32f10x_fwlib/src/stm32f10x_rcc.c ****       else
 945:../stm32f10x_fwlib/src/stm32f10x_rcc.c ****       {
 946:../stm32f10x_fwlib/src/stm32f10x_rcc.c ****  #if defined (STM32F10X_LD_VL) || defined (STM32F10X_MD_VL) || defined (STM32F10X_HD_VL)
 947:../stm32f10x_fwlib/src/stm32f10x_rcc.c ****        prediv1factor = (RCC->CFGR2 & CFGR2_PREDIV1) + 1;
 948:../stm32f10x_fwlib/src/stm32f10x_rcc.c ****        /* HSE oscillator clock selected as PREDIV1 clock entry */
 949:../stm32f10x_fwlib/src/stm32f10x_rcc.c ****        RCC_Clocks->SYSCLK_Frequency = (HSE_VALUE / prediv1factor) * pllmull; 
 950:../stm32f10x_fwlib/src/stm32f10x_rcc.c ****  #else
 951:../stm32f10x_fwlib/src/stm32f10x_rcc.c ****         /* HSE selected as PLL clock entry */
 952:../stm32f10x_fwlib/src/stm32f10x_rcc.c ****         if ((RCC->CFGR & CFGR_PLLXTPRE_Mask) != (uint32_t)RESET)
 953:../stm32f10x_fwlib/src/stm32f10x_rcc.c ****         {/* HSE oscillator clock divided by 2 */
 954:../stm32f10x_fwlib/src/stm32f10x_rcc.c ****           RCC_Clocks->SYSCLK_Frequency = (HSE_VALUE >> 1) * pllmull;
 955:../stm32f10x_fwlib/src/stm32f10x_rcc.c ****         }
 956:../stm32f10x_fwlib/src/stm32f10x_rcc.c ****         else
 957:../stm32f10x_fwlib/src/stm32f10x_rcc.c ****         {
 958:../stm32f10x_fwlib/src/stm32f10x_rcc.c ****           RCC_Clocks->SYSCLK_Frequency = HSE_VALUE * pllmull;
 959:../stm32f10x_fwlib/src/stm32f10x_rcc.c ****         }
 960:../stm32f10x_fwlib/src/stm32f10x_rcc.c ****  #endif
 961:../stm32f10x_fwlib/src/stm32f10x_rcc.c ****       }
 962:../stm32f10x_fwlib/src/stm32f10x_rcc.c **** #else
 963:../stm32f10x_fwlib/src/stm32f10x_rcc.c ****       pllmull = pllmull >> 18;
 964:../stm32f10x_fwlib/src/stm32f10x_rcc.c ****       
 965:../stm32f10x_fwlib/src/stm32f10x_rcc.c ****       if (pllmull != 0x0D)
 966:../stm32f10x_fwlib/src/stm32f10x_rcc.c ****       {
 967:../stm32f10x_fwlib/src/stm32f10x_rcc.c ****          pllmull += 2;
 968:../stm32f10x_fwlib/src/stm32f10x_rcc.c ****       }
 969:../stm32f10x_fwlib/src/stm32f10x_rcc.c ****       else
 970:../stm32f10x_fwlib/src/stm32f10x_rcc.c ****       { /* PLL multiplication factor = PLL input clock * 6.5 */
 971:../stm32f10x_fwlib/src/stm32f10x_rcc.c ****         pllmull = 13 / 2; 
 972:../stm32f10x_fwlib/src/stm32f10x_rcc.c ****       }
 973:../stm32f10x_fwlib/src/stm32f10x_rcc.c ****             
 974:../stm32f10x_fwlib/src/stm32f10x_rcc.c ****       if (pllsource == 0x00)
 975:../stm32f10x_fwlib/src/stm32f10x_rcc.c ****       {/* HSI oscillator clock divided by 2 selected as PLL clock entry */
 976:../stm32f10x_fwlib/src/stm32f10x_rcc.c ****         RCC_Clocks->SYSCLK_Frequency = (HSI_VALUE >> 1) * pllmull;
ARM GAS  C:\Users\28470\AppData\Local\Temp\ccvYo0xZ.s 			page 31


 977:../stm32f10x_fwlib/src/stm32f10x_rcc.c ****       }
 978:../stm32f10x_fwlib/src/stm32f10x_rcc.c ****       else
 979:../stm32f10x_fwlib/src/stm32f10x_rcc.c ****       {/* PREDIV1 selected as PLL clock entry */
 980:../stm32f10x_fwlib/src/stm32f10x_rcc.c ****         
 981:../stm32f10x_fwlib/src/stm32f10x_rcc.c ****         /* Get PREDIV1 clock source and division factor */
 982:../stm32f10x_fwlib/src/stm32f10x_rcc.c ****         prediv1source = RCC->CFGR2 & CFGR2_PREDIV1SRC;
 983:../stm32f10x_fwlib/src/stm32f10x_rcc.c ****         prediv1factor = (RCC->CFGR2 & CFGR2_PREDIV1) + 1;
 984:../stm32f10x_fwlib/src/stm32f10x_rcc.c ****         
 985:../stm32f10x_fwlib/src/stm32f10x_rcc.c ****         if (prediv1source == 0)
 986:../stm32f10x_fwlib/src/stm32f10x_rcc.c ****         { /* HSE oscillator clock selected as PREDIV1 clock entry */
 987:../stm32f10x_fwlib/src/stm32f10x_rcc.c ****           RCC_Clocks->SYSCLK_Frequency = (HSE_VALUE / prediv1factor) * pllmull;          
 988:../stm32f10x_fwlib/src/stm32f10x_rcc.c ****         }
 989:../stm32f10x_fwlib/src/stm32f10x_rcc.c ****         else
 990:../stm32f10x_fwlib/src/stm32f10x_rcc.c ****         {/* PLL2 clock selected as PREDIV1 clock entry */
 991:../stm32f10x_fwlib/src/stm32f10x_rcc.c ****           
 992:../stm32f10x_fwlib/src/stm32f10x_rcc.c ****           /* Get PREDIV2 division factor and PLL2 multiplication factor */
 993:../stm32f10x_fwlib/src/stm32f10x_rcc.c ****           prediv2factor = ((RCC->CFGR2 & CFGR2_PREDIV2) >> 4) + 1;
 994:../stm32f10x_fwlib/src/stm32f10x_rcc.c ****           pll2mull = ((RCC->CFGR2 & CFGR2_PLL2MUL) >> 8 ) + 2; 
 995:../stm32f10x_fwlib/src/stm32f10x_rcc.c ****           RCC_Clocks->SYSCLK_Frequency = (((HSE_VALUE / prediv2factor) * pll2mull) / prediv1factor)
 996:../stm32f10x_fwlib/src/stm32f10x_rcc.c ****         }
 997:../stm32f10x_fwlib/src/stm32f10x_rcc.c ****       }
 998:../stm32f10x_fwlib/src/stm32f10x_rcc.c **** #endif /* STM32F10X_CL */ 
 999:../stm32f10x_fwlib/src/stm32f10x_rcc.c ****       break;
1000:../stm32f10x_fwlib/src/stm32f10x_rcc.c **** 
1001:../stm32f10x_fwlib/src/stm32f10x_rcc.c ****     default:
1002:../stm32f10x_fwlib/src/stm32f10x_rcc.c ****       RCC_Clocks->SYSCLK_Frequency = HSI_VALUE;
 772              		.loc 1 1002 7 view .LVU181
 773              		.loc 1 1002 36 is_stmt 0 view .LVU182
 774 0014 254B     		ldr	r3, .L72+4
 775              	.LVL44:
 776              		.loc 1 1002 36 view .LVU183
 777 0016 0360     		str	r3, [r0]
1003:../stm32f10x_fwlib/src/stm32f10x_rcc.c ****       break;
 778              		.loc 1 1003 7 is_stmt 1 view .LVU184
 779 0018 01E0     		b	.L67
 780              	.LVL45:
 781              	.L71:
 926:../stm32f10x_fwlib/src/stm32f10x_rcc.c ****       break;
 782              		.loc 1 926 7 view .LVU185
 926:../stm32f10x_fwlib/src/stm32f10x_rcc.c ****       break;
 783              		.loc 1 926 36 is_stmt 0 view .LVU186
 784 001a 244B     		ldr	r3, .L72+4
 785              	.LVL46:
 926:../stm32f10x_fwlib/src/stm32f10x_rcc.c ****       break;
 786              		.loc 1 926 36 view .LVU187
 787 001c 0360     		str	r3, [r0]
 927:../stm32f10x_fwlib/src/stm32f10x_rcc.c ****     case 0x04:  /* HSE used as system clock */
 788              		.loc 1 927 7 is_stmt 1 view .LVU188
 789              	.LVL47:
 790              	.L67:
1004:../stm32f10x_fwlib/src/stm32f10x_rcc.c ****   }
1005:../stm32f10x_fwlib/src/stm32f10x_rcc.c **** 
1006:../stm32f10x_fwlib/src/stm32f10x_rcc.c ****   /* Compute HCLK, PCLK1, PCLK2 and ADCCLK clocks frequencies ----------------*/
1007:../stm32f10x_fwlib/src/stm32f10x_rcc.c ****   /* Get HCLK prescaler */
1008:../stm32f10x_fwlib/src/stm32f10x_rcc.c ****   tmp = RCC->CFGR & CFGR_HPRE_Set_Mask;
 791              		.loc 1 1008 3 view .LVU189
 792              		.loc 1 1008 12 is_stmt 0 view .LVU190
ARM GAS  C:\Users\28470\AppData\Local\Temp\ccvYo0xZ.s 			page 32


 793 001e 2249     		ldr	r1, .L72
 794 0020 4B68     		ldr	r3, [r1, #4]
 795              	.LVL48:
1009:../stm32f10x_fwlib/src/stm32f10x_rcc.c ****   tmp = tmp >> 4;
 796              		.loc 1 1009 3 is_stmt 1 view .LVU191
 797              		.loc 1 1009 7 is_stmt 0 view .LVU192
 798 0022 C3F30313 		ubfx	r3, r3, #4, #4
 799              	.LVL49:
1010:../stm32f10x_fwlib/src/stm32f10x_rcc.c ****   presc = APBAHBPrescTable[tmp];
 800              		.loc 1 1010 3 is_stmt 1 view .LVU193
 801              		.loc 1 1010 27 is_stmt 0 view .LVU194
 802 0026 224C     		ldr	r4, .L72+8
 803 0028 E35C     		ldrb	r3, [r4, r3]	@ zero_extendqisi2
 804              	.LVL50:
 805              		.loc 1 1010 27 view .LVU195
 806 002a DAB2     		uxtb	r2, r3
 807              	.LVL51:
1011:../stm32f10x_fwlib/src/stm32f10x_rcc.c ****   /* HCLK clock frequency */
1012:../stm32f10x_fwlib/src/stm32f10x_rcc.c ****   RCC_Clocks->HCLK_Frequency = RCC_Clocks->SYSCLK_Frequency >> presc;
 808              		.loc 1 1012 3 is_stmt 1 view .LVU196
 809              		.loc 1 1012 42 is_stmt 0 view .LVU197
 810 002c 0368     		ldr	r3, [r0]
 811              		.loc 1 1012 61 view .LVU198
 812 002e D340     		lsrs	r3, r3, r2
 813              		.loc 1 1012 30 view .LVU199
 814 0030 4360     		str	r3, [r0, #4]
1013:../stm32f10x_fwlib/src/stm32f10x_rcc.c ****   /* Get PCLK1 prescaler */
1014:../stm32f10x_fwlib/src/stm32f10x_rcc.c ****   tmp = RCC->CFGR & CFGR_PPRE1_Set_Mask;
 815              		.loc 1 1014 3 is_stmt 1 view .LVU200
 816              		.loc 1 1014 12 is_stmt 0 view .LVU201
 817 0032 4A68     		ldr	r2, [r1, #4]
 818              	.LVL52:
1015:../stm32f10x_fwlib/src/stm32f10x_rcc.c ****   tmp = tmp >> 8;
 819              		.loc 1 1015 3 is_stmt 1 view .LVU202
 820              		.loc 1 1015 7 is_stmt 0 view .LVU203
 821 0034 C2F30222 		ubfx	r2, r2, #8, #3
 822              	.LVL53:
1016:../stm32f10x_fwlib/src/stm32f10x_rcc.c ****   presc = APBAHBPrescTable[tmp];
 823              		.loc 1 1016 3 is_stmt 1 view .LVU204
 824              		.loc 1 1016 27 is_stmt 0 view .LVU205
 825 0038 A25C     		ldrb	r2, [r4, r2]	@ zero_extendqisi2
 826              	.LVL54:
 827              		.loc 1 1016 27 view .LVU206
 828 003a D2B2     		uxtb	r2, r2
 829              	.LVL55:
1017:../stm32f10x_fwlib/src/stm32f10x_rcc.c ****   /* PCLK1 clock frequency */
1018:../stm32f10x_fwlib/src/stm32f10x_rcc.c ****   RCC_Clocks->PCLK1_Frequency = RCC_Clocks->HCLK_Frequency >> presc;
 830              		.loc 1 1018 3 is_stmt 1 view .LVU207
 831              		.loc 1 1018 60 is_stmt 0 view .LVU208
 832 003c 23FA02F2 		lsr	r2, r3, r2
 833              	.LVL56:
 834              		.loc 1 1018 31 view .LVU209
 835 0040 8260     		str	r2, [r0, #8]
1019:../stm32f10x_fwlib/src/stm32f10x_rcc.c ****   /* Get PCLK2 prescaler */
1020:../stm32f10x_fwlib/src/stm32f10x_rcc.c ****   tmp = RCC->CFGR & CFGR_PPRE2_Set_Mask;
 836              		.loc 1 1020 3 is_stmt 1 view .LVU210
 837              		.loc 1 1020 12 is_stmt 0 view .LVU211
ARM GAS  C:\Users\28470\AppData\Local\Temp\ccvYo0xZ.s 			page 33


 838 0042 4A68     		ldr	r2, [r1, #4]
 839              	.LVL57:
1021:../stm32f10x_fwlib/src/stm32f10x_rcc.c ****   tmp = tmp >> 11;
 840              		.loc 1 1021 3 is_stmt 1 view .LVU212
 841              		.loc 1 1021 7 is_stmt 0 view .LVU213
 842 0044 C2F3C222 		ubfx	r2, r2, #11, #3
 843              	.LVL58:
1022:../stm32f10x_fwlib/src/stm32f10x_rcc.c ****   presc = APBAHBPrescTable[tmp];
 844              		.loc 1 1022 3 is_stmt 1 view .LVU214
 845              		.loc 1 1022 27 is_stmt 0 view .LVU215
 846 0048 A25C     		ldrb	r2, [r4, r2]	@ zero_extendqisi2
 847              	.LVL59:
 848              		.loc 1 1022 27 view .LVU216
 849 004a D2B2     		uxtb	r2, r2
 850              	.LVL60:
1023:../stm32f10x_fwlib/src/stm32f10x_rcc.c ****   /* PCLK2 clock frequency */
1024:../stm32f10x_fwlib/src/stm32f10x_rcc.c ****   RCC_Clocks->PCLK2_Frequency = RCC_Clocks->HCLK_Frequency >> presc;
 851              		.loc 1 1024 3 is_stmt 1 view .LVU217
 852              		.loc 1 1024 60 is_stmt 0 view .LVU218
 853 004c D340     		lsrs	r3, r3, r2
 854              		.loc 1 1024 31 view .LVU219
 855 004e C360     		str	r3, [r0, #12]
1025:../stm32f10x_fwlib/src/stm32f10x_rcc.c ****   /* Get ADCCLK prescaler */
1026:../stm32f10x_fwlib/src/stm32f10x_rcc.c ****   tmp = RCC->CFGR & CFGR_ADCPRE_Set_Mask;
 856              		.loc 1 1026 3 is_stmt 1 view .LVU220
 857              		.loc 1 1026 12 is_stmt 0 view .LVU221
 858 0050 4A68     		ldr	r2, [r1, #4]
 859              	.LVL61:
1027:../stm32f10x_fwlib/src/stm32f10x_rcc.c ****   tmp = tmp >> 14;
 860              		.loc 1 1027 3 is_stmt 1 view .LVU222
 861              		.loc 1 1027 7 is_stmt 0 view .LVU223
 862 0052 C2F38132 		ubfx	r2, r2, #14, #2
 863              	.LVL62:
1028:../stm32f10x_fwlib/src/stm32f10x_rcc.c ****   presc = ADCPrescTable[tmp];
 864              		.loc 1 1028 3 is_stmt 1 view .LVU224
 865              		.loc 1 1028 24 is_stmt 0 view .LVU225
 866 0056 1749     		ldr	r1, .L72+12
 867 0058 8A5C     		ldrb	r2, [r1, r2]	@ zero_extendqisi2
 868              	.LVL63:
 869              		.loc 1 1028 24 view .LVU226
 870 005a D2B2     		uxtb	r2, r2
 871              	.LVL64:
1029:../stm32f10x_fwlib/src/stm32f10x_rcc.c ****   /* ADCCLK clock frequency */
1030:../stm32f10x_fwlib/src/stm32f10x_rcc.c ****   RCC_Clocks->ADCCLK_Frequency = RCC_Clocks->PCLK2_Frequency / presc;
 872              		.loc 1 1030 3 is_stmt 1 view .LVU227
 873              		.loc 1 1030 62 is_stmt 0 view .LVU228
 874 005c B3FBF2F3 		udiv	r3, r3, r2
 875              		.loc 1 1030 32 view .LVU229
 876 0060 0361     		str	r3, [r0, #16]
1031:../stm32f10x_fwlib/src/stm32f10x_rcc.c **** }
 877              		.loc 1 1031 1 view .LVU230
 878 0062 10BC     		pop	{r4}
 879              	.LCFI1:
 880              		.cfi_remember_state
 881              		.cfi_restore 4
 882              		.cfi_def_cfa_offset 0
 883 0064 7047     		bx	lr
ARM GAS  C:\Users\28470\AppData\Local\Temp\ccvYo0xZ.s 			page 34


 884              	.LVL65:
 885              	.L64:
 886              	.LCFI2:
 887              		.cfi_restore_state
 929:../stm32f10x_fwlib/src/stm32f10x_rcc.c ****       break;
 888              		.loc 1 929 7 is_stmt 1 view .LVU231
 929:../stm32f10x_fwlib/src/stm32f10x_rcc.c ****       break;
 889              		.loc 1 929 36 is_stmt 0 view .LVU232
 890 0066 114B     		ldr	r3, .L72+4
 891              	.LVL66:
 929:../stm32f10x_fwlib/src/stm32f10x_rcc.c ****       break;
 892              		.loc 1 929 36 view .LVU233
 893 0068 0360     		str	r3, [r0]
 930:../stm32f10x_fwlib/src/stm32f10x_rcc.c ****     case 0x08:  /* PLL used as system clock */
 894              		.loc 1 930 7 is_stmt 1 view .LVU234
 895 006a D8E7     		b	.L67
 896              	.LVL67:
 897              	.L65:
 934:../stm32f10x_fwlib/src/stm32f10x_rcc.c ****       pllsource = RCC->CFGR & CFGR_PLLSRC_Mask;
 898              		.loc 1 934 7 view .LVU235
 934:../stm32f10x_fwlib/src/stm32f10x_rcc.c ****       pllsource = RCC->CFGR & CFGR_PLLSRC_Mask;
 899              		.loc 1 934 20 is_stmt 0 view .LVU236
 900 006c 0E4A     		ldr	r2, .L72
 901 006e 5368     		ldr	r3, [r2, #4]
 902              	.LVL68:
 935:../stm32f10x_fwlib/src/stm32f10x_rcc.c ****       
 903              		.loc 1 935 7 is_stmt 1 view .LVU237
 935:../stm32f10x_fwlib/src/stm32f10x_rcc.c ****       
 904              		.loc 1 935 22 is_stmt 0 view .LVU238
 905 0070 5268     		ldr	r2, [r2, #4]
 906              	.LVL69:
 938:../stm32f10x_fwlib/src/stm32f10x_rcc.c ****       
 907              		.loc 1 938 7 is_stmt 1 view .LVU239
 938:../stm32f10x_fwlib/src/stm32f10x_rcc.c ****       
 908              		.loc 1 938 27 is_stmt 0 view .LVU240
 909 0072 C3F38343 		ubfx	r3, r3, #18, #4
 910              	.LVL70:
 938:../stm32f10x_fwlib/src/stm32f10x_rcc.c ****       
 911              		.loc 1 938 15 view .LVU241
 912 0076 0233     		adds	r3, r3, #2
 913              	.LVL71:
 940:../stm32f10x_fwlib/src/stm32f10x_rcc.c ****       {/* HSI oscillator clock divided by 2 selected as PLL clock entry */
 914              		.loc 1 940 7 is_stmt 1 view .LVU242
 940:../stm32f10x_fwlib/src/stm32f10x_rcc.c ****       {/* HSI oscillator clock divided by 2 selected as PLL clock entry */
 915              		.loc 1 940 10 is_stmt 0 view .LVU243
 916 0078 12F4803F 		tst	r2, #65536
 917 007c 04D1     		bne	.L68
 942:../stm32f10x_fwlib/src/stm32f10x_rcc.c ****       }
 918              		.loc 1 942 9 is_stmt 1 view .LVU244
 942:../stm32f10x_fwlib/src/stm32f10x_rcc.c ****       }
 919              		.loc 1 942 57 is_stmt 0 view .LVU245
 920 007e 0E4A     		ldr	r2, .L72+16
 921              	.LVL72:
 942:../stm32f10x_fwlib/src/stm32f10x_rcc.c ****       }
 922              		.loc 1 942 57 view .LVU246
 923 0080 02FB03F3 		mul	r3, r2, r3
 924              	.LVL73:
ARM GAS  C:\Users\28470\AppData\Local\Temp\ccvYo0xZ.s 			page 35


 942:../stm32f10x_fwlib/src/stm32f10x_rcc.c ****       }
 925              		.loc 1 942 38 view .LVU247
 926 0084 0360     		str	r3, [r0]
 927 0086 CAE7     		b	.L67
 928              	.LVL74:
 929              	.L68:
 952:../stm32f10x_fwlib/src/stm32f10x_rcc.c ****         {/* HSE oscillator clock divided by 2 */
 930              		.loc 1 952 9 is_stmt 1 view .LVU248
 952:../stm32f10x_fwlib/src/stm32f10x_rcc.c ****         {/* HSE oscillator clock divided by 2 */
 931              		.loc 1 952 17 is_stmt 0 view .LVU249
 932 0088 074A     		ldr	r2, .L72
 933              	.LVL75:
 952:../stm32f10x_fwlib/src/stm32f10x_rcc.c ****         {/* HSE oscillator clock divided by 2 */
 934              		.loc 1 952 17 view .LVU250
 935 008a 5268     		ldr	r2, [r2, #4]
 952:../stm32f10x_fwlib/src/stm32f10x_rcc.c ****         {/* HSE oscillator clock divided by 2 */
 936              		.loc 1 952 12 view .LVU251
 937 008c 12F4003F 		tst	r2, #131072
 938 0090 04D0     		beq	.L69
 954:../stm32f10x_fwlib/src/stm32f10x_rcc.c ****         }
 939              		.loc 1 954 11 is_stmt 1 view .LVU252
 954:../stm32f10x_fwlib/src/stm32f10x_rcc.c ****         }
 940              		.loc 1 954 59 is_stmt 0 view .LVU253
 941 0092 094A     		ldr	r2, .L72+16
 942 0094 02FB03F3 		mul	r3, r2, r3
 943              	.LVL76:
 954:../stm32f10x_fwlib/src/stm32f10x_rcc.c ****         }
 944              		.loc 1 954 40 view .LVU254
 945 0098 0360     		str	r3, [r0]
 946 009a C0E7     		b	.L67
 947              	.LVL77:
 948              	.L69:
 958:../stm32f10x_fwlib/src/stm32f10x_rcc.c ****         }
 949              		.loc 1 958 11 is_stmt 1 view .LVU255
 958:../stm32f10x_fwlib/src/stm32f10x_rcc.c ****         }
 950              		.loc 1 958 52 is_stmt 0 view .LVU256
 951 009c 034A     		ldr	r2, .L72+4
 952 009e 02FB03F3 		mul	r3, r2, r3
 953              	.LVL78:
 958:../stm32f10x_fwlib/src/stm32f10x_rcc.c ****         }
 954              		.loc 1 958 40 view .LVU257
 955 00a2 0360     		str	r3, [r0]
 956 00a4 BBE7     		b	.L67
 957              	.L73:
 958 00a6 00BF     		.align	2
 959              	.L72:
 960 00a8 00100240 		.word	1073876992
 961 00ac 00127A00 		.word	8000000
 962 00b0 00000000 		.word	.LANCHOR0
 963 00b4 00000000 		.word	.LANCHOR1
 964 00b8 00093D00 		.word	4000000
 965              		.cfi_endproc
 966              	.LFE48:
 968              		.section	.text.RCC_AHBPeriphClockCmd,"ax",%progbits
 969              		.align	1
 970              		.global	RCC_AHBPeriphClockCmd
 971              		.syntax unified
ARM GAS  C:\Users\28470\AppData\Local\Temp\ccvYo0xZ.s 			page 36


 972              		.thumb
 973              		.thumb_func
 975              	RCC_AHBPeriphClockCmd:
 976              	.LVL79:
 977              	.LFB49:
1032:../stm32f10x_fwlib/src/stm32f10x_rcc.c **** 
1033:../stm32f10x_fwlib/src/stm32f10x_rcc.c **** /**
1034:../stm32f10x_fwlib/src/stm32f10x_rcc.c ****   * @brief  Enables or disables the AHB peripheral clock.
1035:../stm32f10x_fwlib/src/stm32f10x_rcc.c ****   * @param  RCC_AHBPeriph: specifies the AHB peripheral to gates its clock.
1036:../stm32f10x_fwlib/src/stm32f10x_rcc.c ****   *   
1037:../stm32f10x_fwlib/src/stm32f10x_rcc.c ****   *   For @b STM32_Connectivity_line_devices, this parameter can be any combination
1038:../stm32f10x_fwlib/src/stm32f10x_rcc.c ****   *   of the following values:        
1039:../stm32f10x_fwlib/src/stm32f10x_rcc.c ****   *     @arg RCC_AHBPeriph_DMA1
1040:../stm32f10x_fwlib/src/stm32f10x_rcc.c ****   *     @arg RCC_AHBPeriph_DMA2
1041:../stm32f10x_fwlib/src/stm32f10x_rcc.c ****   *     @arg RCC_AHBPeriph_SRAM
1042:../stm32f10x_fwlib/src/stm32f10x_rcc.c ****   *     @arg RCC_AHBPeriph_FLITF
1043:../stm32f10x_fwlib/src/stm32f10x_rcc.c ****   *     @arg RCC_AHBPeriph_CRC
1044:../stm32f10x_fwlib/src/stm32f10x_rcc.c ****   *     @arg RCC_AHBPeriph_OTG_FS    
1045:../stm32f10x_fwlib/src/stm32f10x_rcc.c ****   *     @arg RCC_AHBPeriph_ETH_MAC   
1046:../stm32f10x_fwlib/src/stm32f10x_rcc.c ****   *     @arg RCC_AHBPeriph_ETH_MAC_Tx
1047:../stm32f10x_fwlib/src/stm32f10x_rcc.c ****   *     @arg RCC_AHBPeriph_ETH_MAC_Rx
1048:../stm32f10x_fwlib/src/stm32f10x_rcc.c ****   * 
1049:../stm32f10x_fwlib/src/stm32f10x_rcc.c ****   *   For @b other_STM32_devices, this parameter can be any combination of the 
1050:../stm32f10x_fwlib/src/stm32f10x_rcc.c ****   *   following values:        
1051:../stm32f10x_fwlib/src/stm32f10x_rcc.c ****   *     @arg RCC_AHBPeriph_DMA1
1052:../stm32f10x_fwlib/src/stm32f10x_rcc.c ****   *     @arg RCC_AHBPeriph_DMA2
1053:../stm32f10x_fwlib/src/stm32f10x_rcc.c ****   *     @arg RCC_AHBPeriph_SRAM
1054:../stm32f10x_fwlib/src/stm32f10x_rcc.c ****   *     @arg RCC_AHBPeriph_FLITF
1055:../stm32f10x_fwlib/src/stm32f10x_rcc.c ****   *     @arg RCC_AHBPeriph_CRC
1056:../stm32f10x_fwlib/src/stm32f10x_rcc.c ****   *     @arg RCC_AHBPeriph_FSMC
1057:../stm32f10x_fwlib/src/stm32f10x_rcc.c ****   *     @arg RCC_AHBPeriph_SDIO
1058:../stm32f10x_fwlib/src/stm32f10x_rcc.c ****   *   
1059:../stm32f10x_fwlib/src/stm32f10x_rcc.c ****   * @note SRAM and FLITF clock can be disabled only during sleep mode.
1060:../stm32f10x_fwlib/src/stm32f10x_rcc.c ****   * @param  NewState: new state of the specified peripheral clock.
1061:../stm32f10x_fwlib/src/stm32f10x_rcc.c ****   *   This parameter can be: ENABLE or DISABLE.
1062:../stm32f10x_fwlib/src/stm32f10x_rcc.c ****   * @retval None
1063:../stm32f10x_fwlib/src/stm32f10x_rcc.c ****   */
1064:../stm32f10x_fwlib/src/stm32f10x_rcc.c **** void RCC_AHBPeriphClockCmd(uint32_t RCC_AHBPeriph, FunctionalState NewState)
1065:../stm32f10x_fwlib/src/stm32f10x_rcc.c **** {
 978              		.loc 1 1065 1 is_stmt 1 view -0
 979              		.cfi_startproc
 980              		@ args = 0, pretend = 0, frame = 0
 981              		@ frame_needed = 0, uses_anonymous_args = 0
 982              		@ link register save eliminated.
1066:../stm32f10x_fwlib/src/stm32f10x_rcc.c ****   /* Check the parameters */
1067:../stm32f10x_fwlib/src/stm32f10x_rcc.c ****   assert_param(IS_RCC_AHB_PERIPH(RCC_AHBPeriph));
 983              		.loc 1 1067 3 view .LVU259
1068:../stm32f10x_fwlib/src/stm32f10x_rcc.c ****   assert_param(IS_FUNCTIONAL_STATE(NewState));
 984              		.loc 1 1068 3 view .LVU260
1069:../stm32f10x_fwlib/src/stm32f10x_rcc.c **** 
1070:../stm32f10x_fwlib/src/stm32f10x_rcc.c ****   if (NewState != DISABLE)
 985              		.loc 1 1070 3 view .LVU261
 986              		.loc 1 1070 6 is_stmt 0 view .LVU262
 987 0000 21B1     		cbz	r1, .L75
1071:../stm32f10x_fwlib/src/stm32f10x_rcc.c ****   {
1072:../stm32f10x_fwlib/src/stm32f10x_rcc.c ****     RCC->AHBENR |= RCC_AHBPeriph;
 988              		.loc 1 1072 5 is_stmt 1 view .LVU263
ARM GAS  C:\Users\28470\AppData\Local\Temp\ccvYo0xZ.s 			page 37


 989              		.loc 1 1072 17 is_stmt 0 view .LVU264
 990 0002 054A     		ldr	r2, .L77
 991 0004 5369     		ldr	r3, [r2, #20]
 992 0006 1843     		orrs	r0, r0, r3
 993              	.LVL80:
 994              		.loc 1 1072 17 view .LVU265
 995 0008 5061     		str	r0, [r2, #20]
 996 000a 7047     		bx	lr
 997              	.LVL81:
 998              	.L75:
1073:../stm32f10x_fwlib/src/stm32f10x_rcc.c ****   }
1074:../stm32f10x_fwlib/src/stm32f10x_rcc.c ****   else
1075:../stm32f10x_fwlib/src/stm32f10x_rcc.c ****   {
1076:../stm32f10x_fwlib/src/stm32f10x_rcc.c ****     RCC->AHBENR &= ~RCC_AHBPeriph;
 999              		.loc 1 1076 5 is_stmt 1 view .LVU266
 1000              		.loc 1 1076 17 is_stmt 0 view .LVU267
 1001 000c 024A     		ldr	r2, .L77
 1002 000e 5369     		ldr	r3, [r2, #20]
 1003 0010 23EA0000 		bic	r0, r3, r0
 1004              	.LVL82:
 1005              		.loc 1 1076 17 view .LVU268
 1006 0014 5061     		str	r0, [r2, #20]
1077:../stm32f10x_fwlib/src/stm32f10x_rcc.c ****   }
1078:../stm32f10x_fwlib/src/stm32f10x_rcc.c **** }
 1007              		.loc 1 1078 1 view .LVU269
 1008 0016 7047     		bx	lr
 1009              	.L78:
 1010              		.align	2
 1011              	.L77:
 1012 0018 00100240 		.word	1073876992
 1013              		.cfi_endproc
 1014              	.LFE49:
 1016              		.section	.text.RCC_APB2PeriphClockCmd,"ax",%progbits
 1017              		.align	1
 1018              		.global	RCC_APB2PeriphClockCmd
 1019              		.syntax unified
 1020              		.thumb
 1021              		.thumb_func
 1023              	RCC_APB2PeriphClockCmd:
 1024              	.LVL83:
 1025              	.LFB50:
1079:../stm32f10x_fwlib/src/stm32f10x_rcc.c **** 
1080:../stm32f10x_fwlib/src/stm32f10x_rcc.c **** /**
1081:../stm32f10x_fwlib/src/stm32f10x_rcc.c ****   * @brief  Enables or disables the High Speed APB (APB2) peripheral clock.
1082:../stm32f10x_fwlib/src/stm32f10x_rcc.c ****   * @param  RCC_APB2Periph: specifies the APB2 peripheral to gates its clock.
1083:../stm32f10x_fwlib/src/stm32f10x_rcc.c ****   *   This parameter can be any combination of the following values:
1084:../stm32f10x_fwlib/src/stm32f10x_rcc.c ****   *     @arg RCC_APB2Periph_AFIO, RCC_APB2Periph_GPIOA, RCC_APB2Periph_GPIOB,
1085:../stm32f10x_fwlib/src/stm32f10x_rcc.c ****   *          RCC_APB2Periph_GPIOC, RCC_APB2Periph_GPIOD, RCC_APB2Periph_GPIOE,
1086:../stm32f10x_fwlib/src/stm32f10x_rcc.c ****   *          RCC_APB2Periph_GPIOF, RCC_APB2Periph_GPIOG, RCC_APB2Periph_ADC1,
1087:../stm32f10x_fwlib/src/stm32f10x_rcc.c ****   *          RCC_APB2Periph_ADC2, RCC_APB2Periph_TIM1, RCC_APB2Periph_SPI1,
1088:../stm32f10x_fwlib/src/stm32f10x_rcc.c ****   *          RCC_APB2Periph_TIM8, RCC_APB2Periph_USART1, RCC_APB2Periph_ADC3,
1089:../stm32f10x_fwlib/src/stm32f10x_rcc.c ****   *          RCC_APB2Periph_TIM15, RCC_APB2Periph_TIM16, RCC_APB2Periph_TIM17,
1090:../stm32f10x_fwlib/src/stm32f10x_rcc.c ****   *          RCC_APB2Periph_TIM9, RCC_APB2Periph_TIM10, RCC_APB2Periph_TIM11     
1091:../stm32f10x_fwlib/src/stm32f10x_rcc.c ****   * @param  NewState: new state of the specified peripheral clock.
1092:../stm32f10x_fwlib/src/stm32f10x_rcc.c ****   *   This parameter can be: ENABLE or DISABLE.
1093:../stm32f10x_fwlib/src/stm32f10x_rcc.c ****   * @retval None
1094:../stm32f10x_fwlib/src/stm32f10x_rcc.c ****   */
ARM GAS  C:\Users\28470\AppData\Local\Temp\ccvYo0xZ.s 			page 38


1095:../stm32f10x_fwlib/src/stm32f10x_rcc.c **** void RCC_APB2PeriphClockCmd(uint32_t RCC_APB2Periph, FunctionalState NewState)
1096:../stm32f10x_fwlib/src/stm32f10x_rcc.c **** {
 1026              		.loc 1 1096 1 is_stmt 1 view -0
 1027              		.cfi_startproc
 1028              		@ args = 0, pretend = 0, frame = 0
 1029              		@ frame_needed = 0, uses_anonymous_args = 0
 1030              		@ link register save eliminated.
1097:../stm32f10x_fwlib/src/stm32f10x_rcc.c ****   /* Check the parameters */
1098:../stm32f10x_fwlib/src/stm32f10x_rcc.c ****   assert_param(IS_RCC_APB2_PERIPH(RCC_APB2Periph));
 1031              		.loc 1 1098 3 view .LVU271
1099:../stm32f10x_fwlib/src/stm32f10x_rcc.c ****   assert_param(IS_FUNCTIONAL_STATE(NewState));
 1032              		.loc 1 1099 3 view .LVU272
1100:../stm32f10x_fwlib/src/stm32f10x_rcc.c ****   if (NewState != DISABLE)
 1033              		.loc 1 1100 3 view .LVU273
 1034              		.loc 1 1100 6 is_stmt 0 view .LVU274
 1035 0000 21B1     		cbz	r1, .L80
1101:../stm32f10x_fwlib/src/stm32f10x_rcc.c ****   {
1102:../stm32f10x_fwlib/src/stm32f10x_rcc.c ****     RCC->APB2ENR |= RCC_APB2Periph;
 1036              		.loc 1 1102 5 is_stmt 1 view .LVU275
 1037              		.loc 1 1102 18 is_stmt 0 view .LVU276
 1038 0002 054A     		ldr	r2, .L82
 1039 0004 9369     		ldr	r3, [r2, #24]
 1040 0006 1843     		orrs	r0, r0, r3
 1041              	.LVL84:
 1042              		.loc 1 1102 18 view .LVU277
 1043 0008 9061     		str	r0, [r2, #24]
 1044 000a 7047     		bx	lr
 1045              	.LVL85:
 1046              	.L80:
1103:../stm32f10x_fwlib/src/stm32f10x_rcc.c ****   }
1104:../stm32f10x_fwlib/src/stm32f10x_rcc.c ****   else
1105:../stm32f10x_fwlib/src/stm32f10x_rcc.c ****   {
1106:../stm32f10x_fwlib/src/stm32f10x_rcc.c ****     RCC->APB2ENR &= ~RCC_APB2Periph;
 1047              		.loc 1 1106 5 is_stmt 1 view .LVU278
 1048              		.loc 1 1106 18 is_stmt 0 view .LVU279
 1049 000c 024A     		ldr	r2, .L82
 1050 000e 9369     		ldr	r3, [r2, #24]
 1051 0010 23EA0000 		bic	r0, r3, r0
 1052              	.LVL86:
 1053              		.loc 1 1106 18 view .LVU280
 1054 0014 9061     		str	r0, [r2, #24]
1107:../stm32f10x_fwlib/src/stm32f10x_rcc.c ****   }
1108:../stm32f10x_fwlib/src/stm32f10x_rcc.c **** }
 1055              		.loc 1 1108 1 view .LVU281
 1056 0016 7047     		bx	lr
 1057              	.L83:
 1058              		.align	2
 1059              	.L82:
 1060 0018 00100240 		.word	1073876992
 1061              		.cfi_endproc
 1062              	.LFE50:
 1064              		.section	.text.RCC_APB1PeriphClockCmd,"ax",%progbits
 1065              		.align	1
 1066              		.global	RCC_APB1PeriphClockCmd
 1067              		.syntax unified
 1068              		.thumb
 1069              		.thumb_func
ARM GAS  C:\Users\28470\AppData\Local\Temp\ccvYo0xZ.s 			page 39


 1071              	RCC_APB1PeriphClockCmd:
 1072              	.LVL87:
 1073              	.LFB51:
1109:../stm32f10x_fwlib/src/stm32f10x_rcc.c **** 
1110:../stm32f10x_fwlib/src/stm32f10x_rcc.c **** /**
1111:../stm32f10x_fwlib/src/stm32f10x_rcc.c ****   * @brief  Enables or disables the Low Speed APB (APB1) peripheral clock.
1112:../stm32f10x_fwlib/src/stm32f10x_rcc.c ****   * @param  RCC_APB1Periph: specifies the APB1 peripheral to gates its clock.
1113:../stm32f10x_fwlib/src/stm32f10x_rcc.c ****   *   This parameter can be any combination of the following values:
1114:../stm32f10x_fwlib/src/stm32f10x_rcc.c ****   *     @arg RCC_APB1Periph_TIM2, RCC_APB1Periph_TIM3, RCC_APB1Periph_TIM4,
1115:../stm32f10x_fwlib/src/stm32f10x_rcc.c ****   *          RCC_APB1Periph_TIM5, RCC_APB1Periph_TIM6, RCC_APB1Periph_TIM7,
1116:../stm32f10x_fwlib/src/stm32f10x_rcc.c ****   *          RCC_APB1Periph_WWDG, RCC_APB1Periph_SPI2, RCC_APB1Periph_SPI3,
1117:../stm32f10x_fwlib/src/stm32f10x_rcc.c ****   *          RCC_APB1Periph_USART2, RCC_APB1Periph_USART3, RCC_APB1Periph_USART4, 
1118:../stm32f10x_fwlib/src/stm32f10x_rcc.c ****   *          RCC_APB1Periph_USART5, RCC_APB1Periph_I2C1, RCC_APB1Periph_I2C2,
1119:../stm32f10x_fwlib/src/stm32f10x_rcc.c ****   *          RCC_APB1Periph_USB, RCC_APB1Periph_CAN1, RCC_APB1Periph_BKP,
1120:../stm32f10x_fwlib/src/stm32f10x_rcc.c ****   *          RCC_APB1Periph_PWR, RCC_APB1Periph_DAC, RCC_APB1Periph_CEC,
1121:../stm32f10x_fwlib/src/stm32f10x_rcc.c ****   *          RCC_APB1Periph_TIM12, RCC_APB1Periph_TIM13, RCC_APB1Periph_TIM14
1122:../stm32f10x_fwlib/src/stm32f10x_rcc.c ****   * @param  NewState: new state of the specified peripheral clock.
1123:../stm32f10x_fwlib/src/stm32f10x_rcc.c ****   *   This parameter can be: ENABLE or DISABLE.
1124:../stm32f10x_fwlib/src/stm32f10x_rcc.c ****   * @retval None
1125:../stm32f10x_fwlib/src/stm32f10x_rcc.c ****   */
1126:../stm32f10x_fwlib/src/stm32f10x_rcc.c **** void RCC_APB1PeriphClockCmd(uint32_t RCC_APB1Periph, FunctionalState NewState)
1127:../stm32f10x_fwlib/src/stm32f10x_rcc.c **** {
 1074              		.loc 1 1127 1 is_stmt 1 view -0
 1075              		.cfi_startproc
 1076              		@ args = 0, pretend = 0, frame = 0
 1077              		@ frame_needed = 0, uses_anonymous_args = 0
 1078              		@ link register save eliminated.
1128:../stm32f10x_fwlib/src/stm32f10x_rcc.c ****   /* Check the parameters */
1129:../stm32f10x_fwlib/src/stm32f10x_rcc.c ****   assert_param(IS_RCC_APB1_PERIPH(RCC_APB1Periph));
 1079              		.loc 1 1129 3 view .LVU283
1130:../stm32f10x_fwlib/src/stm32f10x_rcc.c ****   assert_param(IS_FUNCTIONAL_STATE(NewState));
 1080              		.loc 1 1130 3 view .LVU284
1131:../stm32f10x_fwlib/src/stm32f10x_rcc.c ****   if (NewState != DISABLE)
 1081              		.loc 1 1131 3 view .LVU285
 1082              		.loc 1 1131 6 is_stmt 0 view .LVU286
 1083 0000 21B1     		cbz	r1, .L85
1132:../stm32f10x_fwlib/src/stm32f10x_rcc.c ****   {
1133:../stm32f10x_fwlib/src/stm32f10x_rcc.c ****     RCC->APB1ENR |= RCC_APB1Periph;
 1084              		.loc 1 1133 5 is_stmt 1 view .LVU287
 1085              		.loc 1 1133 18 is_stmt 0 view .LVU288
 1086 0002 054A     		ldr	r2, .L87
 1087 0004 D369     		ldr	r3, [r2, #28]
 1088 0006 1843     		orrs	r0, r0, r3
 1089              	.LVL88:
 1090              		.loc 1 1133 18 view .LVU289
 1091 0008 D061     		str	r0, [r2, #28]
 1092 000a 7047     		bx	lr
 1093              	.LVL89:
 1094              	.L85:
1134:../stm32f10x_fwlib/src/stm32f10x_rcc.c ****   }
1135:../stm32f10x_fwlib/src/stm32f10x_rcc.c ****   else
1136:../stm32f10x_fwlib/src/stm32f10x_rcc.c ****   {
1137:../stm32f10x_fwlib/src/stm32f10x_rcc.c ****     RCC->APB1ENR &= ~RCC_APB1Periph;
 1095              		.loc 1 1137 5 is_stmt 1 view .LVU290
 1096              		.loc 1 1137 18 is_stmt 0 view .LVU291
 1097 000c 024A     		ldr	r2, .L87
 1098 000e D369     		ldr	r3, [r2, #28]
ARM GAS  C:\Users\28470\AppData\Local\Temp\ccvYo0xZ.s 			page 40


 1099 0010 23EA0000 		bic	r0, r3, r0
 1100              	.LVL90:
 1101              		.loc 1 1137 18 view .LVU292
 1102 0014 D061     		str	r0, [r2, #28]
1138:../stm32f10x_fwlib/src/stm32f10x_rcc.c ****   }
1139:../stm32f10x_fwlib/src/stm32f10x_rcc.c **** }
 1103              		.loc 1 1139 1 view .LVU293
 1104 0016 7047     		bx	lr
 1105              	.L88:
 1106              		.align	2
 1107              	.L87:
 1108 0018 00100240 		.word	1073876992
 1109              		.cfi_endproc
 1110              	.LFE51:
 1112              		.section	.text.RCC_APB2PeriphResetCmd,"ax",%progbits
 1113              		.align	1
 1114              		.global	RCC_APB2PeriphResetCmd
 1115              		.syntax unified
 1116              		.thumb
 1117              		.thumb_func
 1119              	RCC_APB2PeriphResetCmd:
 1120              	.LVL91:
 1121              	.LFB52:
1140:../stm32f10x_fwlib/src/stm32f10x_rcc.c **** 
1141:../stm32f10x_fwlib/src/stm32f10x_rcc.c **** #ifdef STM32F10X_CL
1142:../stm32f10x_fwlib/src/stm32f10x_rcc.c **** /**
1143:../stm32f10x_fwlib/src/stm32f10x_rcc.c ****   * @brief  Forces or releases AHB peripheral reset.
1144:../stm32f10x_fwlib/src/stm32f10x_rcc.c ****   * @note   This function applies only to STM32 Connectivity line devices.
1145:../stm32f10x_fwlib/src/stm32f10x_rcc.c ****   * @param  RCC_AHBPeriph: specifies the AHB peripheral to reset.
1146:../stm32f10x_fwlib/src/stm32f10x_rcc.c ****   *   This parameter can be any combination of the following values:
1147:../stm32f10x_fwlib/src/stm32f10x_rcc.c ****   *     @arg RCC_AHBPeriph_OTG_FS 
1148:../stm32f10x_fwlib/src/stm32f10x_rcc.c ****   *     @arg RCC_AHBPeriph_ETH_MAC
1149:../stm32f10x_fwlib/src/stm32f10x_rcc.c ****   * @param  NewState: new state of the specified peripheral reset.
1150:../stm32f10x_fwlib/src/stm32f10x_rcc.c ****   *   This parameter can be: ENABLE or DISABLE.
1151:../stm32f10x_fwlib/src/stm32f10x_rcc.c ****   * @retval None
1152:../stm32f10x_fwlib/src/stm32f10x_rcc.c ****   */
1153:../stm32f10x_fwlib/src/stm32f10x_rcc.c **** void RCC_AHBPeriphResetCmd(uint32_t RCC_AHBPeriph, FunctionalState NewState)
1154:../stm32f10x_fwlib/src/stm32f10x_rcc.c **** {
1155:../stm32f10x_fwlib/src/stm32f10x_rcc.c ****   /* Check the parameters */
1156:../stm32f10x_fwlib/src/stm32f10x_rcc.c ****   assert_param(IS_RCC_AHB_PERIPH_RESET(RCC_AHBPeriph));
1157:../stm32f10x_fwlib/src/stm32f10x_rcc.c ****   assert_param(IS_FUNCTIONAL_STATE(NewState));
1158:../stm32f10x_fwlib/src/stm32f10x_rcc.c **** 
1159:../stm32f10x_fwlib/src/stm32f10x_rcc.c ****   if (NewState != DISABLE)
1160:../stm32f10x_fwlib/src/stm32f10x_rcc.c ****   {
1161:../stm32f10x_fwlib/src/stm32f10x_rcc.c ****     RCC->AHBRSTR |= RCC_AHBPeriph;
1162:../stm32f10x_fwlib/src/stm32f10x_rcc.c ****   }
1163:../stm32f10x_fwlib/src/stm32f10x_rcc.c ****   else
1164:../stm32f10x_fwlib/src/stm32f10x_rcc.c ****   {
1165:../stm32f10x_fwlib/src/stm32f10x_rcc.c ****     RCC->AHBRSTR &= ~RCC_AHBPeriph;
1166:../stm32f10x_fwlib/src/stm32f10x_rcc.c ****   }
1167:../stm32f10x_fwlib/src/stm32f10x_rcc.c **** }
1168:../stm32f10x_fwlib/src/stm32f10x_rcc.c **** #endif /* STM32F10X_CL */ 
1169:../stm32f10x_fwlib/src/stm32f10x_rcc.c **** 
1170:../stm32f10x_fwlib/src/stm32f10x_rcc.c **** /**
1171:../stm32f10x_fwlib/src/stm32f10x_rcc.c ****   * @brief  Forces or releases High Speed APB (APB2) peripheral reset.
1172:../stm32f10x_fwlib/src/stm32f10x_rcc.c ****   * @param  RCC_APB2Periph: specifies the APB2 peripheral to reset.
1173:../stm32f10x_fwlib/src/stm32f10x_rcc.c ****   *   This parameter can be any combination of the following values:
ARM GAS  C:\Users\28470\AppData\Local\Temp\ccvYo0xZ.s 			page 41


1174:../stm32f10x_fwlib/src/stm32f10x_rcc.c ****   *     @arg RCC_APB2Periph_AFIO, RCC_APB2Periph_GPIOA, RCC_APB2Periph_GPIOB,
1175:../stm32f10x_fwlib/src/stm32f10x_rcc.c ****   *          RCC_APB2Periph_GPIOC, RCC_APB2Periph_GPIOD, RCC_APB2Periph_GPIOE,
1176:../stm32f10x_fwlib/src/stm32f10x_rcc.c ****   *          RCC_APB2Periph_GPIOF, RCC_APB2Periph_GPIOG, RCC_APB2Periph_ADC1,
1177:../stm32f10x_fwlib/src/stm32f10x_rcc.c ****   *          RCC_APB2Periph_ADC2, RCC_APB2Periph_TIM1, RCC_APB2Periph_SPI1,
1178:../stm32f10x_fwlib/src/stm32f10x_rcc.c ****   *          RCC_APB2Periph_TIM8, RCC_APB2Periph_USART1, RCC_APB2Periph_ADC3,
1179:../stm32f10x_fwlib/src/stm32f10x_rcc.c ****   *          RCC_APB2Periph_TIM15, RCC_APB2Periph_TIM16, RCC_APB2Periph_TIM17,
1180:../stm32f10x_fwlib/src/stm32f10x_rcc.c ****   *          RCC_APB2Periph_TIM9, RCC_APB2Periph_TIM10, RCC_APB2Periph_TIM11  
1181:../stm32f10x_fwlib/src/stm32f10x_rcc.c ****   * @param  NewState: new state of the specified peripheral reset.
1182:../stm32f10x_fwlib/src/stm32f10x_rcc.c ****   *   This parameter can be: ENABLE or DISABLE.
1183:../stm32f10x_fwlib/src/stm32f10x_rcc.c ****   * @retval None
1184:../stm32f10x_fwlib/src/stm32f10x_rcc.c ****   */
1185:../stm32f10x_fwlib/src/stm32f10x_rcc.c **** void RCC_APB2PeriphResetCmd(uint32_t RCC_APB2Periph, FunctionalState NewState)
1186:../stm32f10x_fwlib/src/stm32f10x_rcc.c **** {
 1122              		.loc 1 1186 1 is_stmt 1 view -0
 1123              		.cfi_startproc
 1124              		@ args = 0, pretend = 0, frame = 0
 1125              		@ frame_needed = 0, uses_anonymous_args = 0
 1126              		@ link register save eliminated.
1187:../stm32f10x_fwlib/src/stm32f10x_rcc.c ****   /* Check the parameters */
1188:../stm32f10x_fwlib/src/stm32f10x_rcc.c ****   assert_param(IS_RCC_APB2_PERIPH(RCC_APB2Periph));
 1127              		.loc 1 1188 3 view .LVU295
1189:../stm32f10x_fwlib/src/stm32f10x_rcc.c ****   assert_param(IS_FUNCTIONAL_STATE(NewState));
 1128              		.loc 1 1189 3 view .LVU296
1190:../stm32f10x_fwlib/src/stm32f10x_rcc.c ****   if (NewState != DISABLE)
 1129              		.loc 1 1190 3 view .LVU297
 1130              		.loc 1 1190 6 is_stmt 0 view .LVU298
 1131 0000 21B1     		cbz	r1, .L90
1191:../stm32f10x_fwlib/src/stm32f10x_rcc.c ****   {
1192:../stm32f10x_fwlib/src/stm32f10x_rcc.c ****     RCC->APB2RSTR |= RCC_APB2Periph;
 1132              		.loc 1 1192 5 is_stmt 1 view .LVU299
 1133              		.loc 1 1192 19 is_stmt 0 view .LVU300
 1134 0002 054A     		ldr	r2, .L92
 1135 0004 D368     		ldr	r3, [r2, #12]
 1136 0006 1843     		orrs	r0, r0, r3
 1137              	.LVL92:
 1138              		.loc 1 1192 19 view .LVU301
 1139 0008 D060     		str	r0, [r2, #12]
 1140 000a 7047     		bx	lr
 1141              	.LVL93:
 1142              	.L90:
1193:../stm32f10x_fwlib/src/stm32f10x_rcc.c ****   }
1194:../stm32f10x_fwlib/src/stm32f10x_rcc.c ****   else
1195:../stm32f10x_fwlib/src/stm32f10x_rcc.c ****   {
1196:../stm32f10x_fwlib/src/stm32f10x_rcc.c ****     RCC->APB2RSTR &= ~RCC_APB2Periph;
 1143              		.loc 1 1196 5 is_stmt 1 view .LVU302
 1144              		.loc 1 1196 19 is_stmt 0 view .LVU303
 1145 000c 024A     		ldr	r2, .L92
 1146 000e D368     		ldr	r3, [r2, #12]
 1147 0010 23EA0000 		bic	r0, r3, r0
 1148              	.LVL94:
 1149              		.loc 1 1196 19 view .LVU304
 1150 0014 D060     		str	r0, [r2, #12]
1197:../stm32f10x_fwlib/src/stm32f10x_rcc.c ****   }
1198:../stm32f10x_fwlib/src/stm32f10x_rcc.c **** }
 1151              		.loc 1 1198 1 view .LVU305
 1152 0016 7047     		bx	lr
 1153              	.L93:
ARM GAS  C:\Users\28470\AppData\Local\Temp\ccvYo0xZ.s 			page 42


 1154              		.align	2
 1155              	.L92:
 1156 0018 00100240 		.word	1073876992
 1157              		.cfi_endproc
 1158              	.LFE52:
 1160              		.section	.text.RCC_APB1PeriphResetCmd,"ax",%progbits
 1161              		.align	1
 1162              		.global	RCC_APB1PeriphResetCmd
 1163              		.syntax unified
 1164              		.thumb
 1165              		.thumb_func
 1167              	RCC_APB1PeriphResetCmd:
 1168              	.LVL95:
 1169              	.LFB53:
1199:../stm32f10x_fwlib/src/stm32f10x_rcc.c **** 
1200:../stm32f10x_fwlib/src/stm32f10x_rcc.c **** /**
1201:../stm32f10x_fwlib/src/stm32f10x_rcc.c ****   * @brief  Forces or releases Low Speed APB (APB1) peripheral reset.
1202:../stm32f10x_fwlib/src/stm32f10x_rcc.c ****   * @param  RCC_APB1Periph: specifies the APB1 peripheral to reset.
1203:../stm32f10x_fwlib/src/stm32f10x_rcc.c ****   *   This parameter can be any combination of the following values:
1204:../stm32f10x_fwlib/src/stm32f10x_rcc.c ****   *     @arg RCC_APB1Periph_TIM2, RCC_APB1Periph_TIM3, RCC_APB1Periph_TIM4,
1205:../stm32f10x_fwlib/src/stm32f10x_rcc.c ****   *          RCC_APB1Periph_TIM5, RCC_APB1Periph_TIM6, RCC_APB1Periph_TIM7,
1206:../stm32f10x_fwlib/src/stm32f10x_rcc.c ****   *          RCC_APB1Periph_WWDG, RCC_APB1Periph_SPI2, RCC_APB1Periph_SPI3,
1207:../stm32f10x_fwlib/src/stm32f10x_rcc.c ****   *          RCC_APB1Periph_USART2, RCC_APB1Periph_USART3, RCC_APB1Periph_USART4, 
1208:../stm32f10x_fwlib/src/stm32f10x_rcc.c ****   *          RCC_APB1Periph_USART5, RCC_APB1Periph_I2C1, RCC_APB1Periph_I2C2,
1209:../stm32f10x_fwlib/src/stm32f10x_rcc.c ****   *          RCC_APB1Periph_USB, RCC_APB1Periph_CAN1, RCC_APB1Periph_BKP,
1210:../stm32f10x_fwlib/src/stm32f10x_rcc.c ****   *          RCC_APB1Periph_PWR, RCC_APB1Periph_DAC, RCC_APB1Periph_CEC,
1211:../stm32f10x_fwlib/src/stm32f10x_rcc.c ****   *          RCC_APB1Periph_TIM12, RCC_APB1Periph_TIM13, RCC_APB1Periph_TIM14  
1212:../stm32f10x_fwlib/src/stm32f10x_rcc.c ****   * @param  NewState: new state of the specified peripheral clock.
1213:../stm32f10x_fwlib/src/stm32f10x_rcc.c ****   *   This parameter can be: ENABLE or DISABLE.
1214:../stm32f10x_fwlib/src/stm32f10x_rcc.c ****   * @retval None
1215:../stm32f10x_fwlib/src/stm32f10x_rcc.c ****   */
1216:../stm32f10x_fwlib/src/stm32f10x_rcc.c **** void RCC_APB1PeriphResetCmd(uint32_t RCC_APB1Periph, FunctionalState NewState)
1217:../stm32f10x_fwlib/src/stm32f10x_rcc.c **** {
 1170              		.loc 1 1217 1 is_stmt 1 view -0
 1171              		.cfi_startproc
 1172              		@ args = 0, pretend = 0, frame = 0
 1173              		@ frame_needed = 0, uses_anonymous_args = 0
 1174              		@ link register save eliminated.
1218:../stm32f10x_fwlib/src/stm32f10x_rcc.c ****   /* Check the parameters */
1219:../stm32f10x_fwlib/src/stm32f10x_rcc.c ****   assert_param(IS_RCC_APB1_PERIPH(RCC_APB1Periph));
 1175              		.loc 1 1219 3 view .LVU307
1220:../stm32f10x_fwlib/src/stm32f10x_rcc.c ****   assert_param(IS_FUNCTIONAL_STATE(NewState));
 1176              		.loc 1 1220 3 view .LVU308
1221:../stm32f10x_fwlib/src/stm32f10x_rcc.c ****   if (NewState != DISABLE)
 1177              		.loc 1 1221 3 view .LVU309
 1178              		.loc 1 1221 6 is_stmt 0 view .LVU310
 1179 0000 21B1     		cbz	r1, .L95
1222:../stm32f10x_fwlib/src/stm32f10x_rcc.c ****   {
1223:../stm32f10x_fwlib/src/stm32f10x_rcc.c ****     RCC->APB1RSTR |= RCC_APB1Periph;
 1180              		.loc 1 1223 5 is_stmt 1 view .LVU311
 1181              		.loc 1 1223 19 is_stmt 0 view .LVU312
 1182 0002 054A     		ldr	r2, .L97
 1183 0004 1369     		ldr	r3, [r2, #16]
 1184 0006 1843     		orrs	r0, r0, r3
 1185              	.LVL96:
 1186              		.loc 1 1223 19 view .LVU313
 1187 0008 1061     		str	r0, [r2, #16]
ARM GAS  C:\Users\28470\AppData\Local\Temp\ccvYo0xZ.s 			page 43


 1188 000a 7047     		bx	lr
 1189              	.LVL97:
 1190              	.L95:
1224:../stm32f10x_fwlib/src/stm32f10x_rcc.c ****   }
1225:../stm32f10x_fwlib/src/stm32f10x_rcc.c ****   else
1226:../stm32f10x_fwlib/src/stm32f10x_rcc.c ****   {
1227:../stm32f10x_fwlib/src/stm32f10x_rcc.c ****     RCC->APB1RSTR &= ~RCC_APB1Periph;
 1191              		.loc 1 1227 5 is_stmt 1 view .LVU314
 1192              		.loc 1 1227 19 is_stmt 0 view .LVU315
 1193 000c 024A     		ldr	r2, .L97
 1194 000e 1369     		ldr	r3, [r2, #16]
 1195 0010 23EA0000 		bic	r0, r3, r0
 1196              	.LVL98:
 1197              		.loc 1 1227 19 view .LVU316
 1198 0014 1061     		str	r0, [r2, #16]
1228:../stm32f10x_fwlib/src/stm32f10x_rcc.c ****   }
1229:../stm32f10x_fwlib/src/stm32f10x_rcc.c **** }
 1199              		.loc 1 1229 1 view .LVU317
 1200 0016 7047     		bx	lr
 1201              	.L98:
 1202              		.align	2
 1203              	.L97:
 1204 0018 00100240 		.word	1073876992
 1205              		.cfi_endproc
 1206              	.LFE53:
 1208              		.section	.text.RCC_BackupResetCmd,"ax",%progbits
 1209              		.align	1
 1210              		.global	RCC_BackupResetCmd
 1211              		.syntax unified
 1212              		.thumb
 1213              		.thumb_func
 1215              	RCC_BackupResetCmd:
 1216              	.LVL99:
 1217              	.LFB54:
1230:../stm32f10x_fwlib/src/stm32f10x_rcc.c **** 
1231:../stm32f10x_fwlib/src/stm32f10x_rcc.c **** /**
1232:../stm32f10x_fwlib/src/stm32f10x_rcc.c ****   * @brief  Forces or releases the Backup domain reset.
1233:../stm32f10x_fwlib/src/stm32f10x_rcc.c ****   * @param  NewState: new state of the Backup domain reset.
1234:../stm32f10x_fwlib/src/stm32f10x_rcc.c ****   *   This parameter can be: ENABLE or DISABLE.
1235:../stm32f10x_fwlib/src/stm32f10x_rcc.c ****   * @retval None
1236:../stm32f10x_fwlib/src/stm32f10x_rcc.c ****   */
1237:../stm32f10x_fwlib/src/stm32f10x_rcc.c **** void RCC_BackupResetCmd(FunctionalState NewState)
1238:../stm32f10x_fwlib/src/stm32f10x_rcc.c **** {
 1218              		.loc 1 1238 1 is_stmt 1 view -0
 1219              		.cfi_startproc
 1220              		@ args = 0, pretend = 0, frame = 0
 1221              		@ frame_needed = 0, uses_anonymous_args = 0
 1222              		@ link register save eliminated.
1239:../stm32f10x_fwlib/src/stm32f10x_rcc.c ****   /* Check the parameters */
1240:../stm32f10x_fwlib/src/stm32f10x_rcc.c ****   assert_param(IS_FUNCTIONAL_STATE(NewState));
 1223              		.loc 1 1240 3 view .LVU319
1241:../stm32f10x_fwlib/src/stm32f10x_rcc.c ****   *(__IO uint32_t *) BDCR_BDRST_BB = (uint32_t)NewState;
 1224              		.loc 1 1241 3 view .LVU320
 1225              		.loc 1 1241 36 is_stmt 0 view .LVU321
 1226 0000 014B     		ldr	r3, .L100
 1227 0002 C3F84004 		str	r0, [r3, #1088]
1242:../stm32f10x_fwlib/src/stm32f10x_rcc.c **** }
ARM GAS  C:\Users\28470\AppData\Local\Temp\ccvYo0xZ.s 			page 44


 1228              		.loc 1 1242 1 view .LVU322
 1229 0006 7047     		bx	lr
 1230              	.L101:
 1231              		.align	2
 1232              	.L100:
 1233 0008 00004242 		.word	1111621632
 1234              		.cfi_endproc
 1235              	.LFE54:
 1237              		.section	.text.RCC_ClockSecuritySystemCmd,"ax",%progbits
 1238              		.align	1
 1239              		.global	RCC_ClockSecuritySystemCmd
 1240              		.syntax unified
 1241              		.thumb
 1242              		.thumb_func
 1244              	RCC_ClockSecuritySystemCmd:
 1245              	.LVL100:
 1246              	.LFB55:
1243:../stm32f10x_fwlib/src/stm32f10x_rcc.c **** 
1244:../stm32f10x_fwlib/src/stm32f10x_rcc.c **** /**
1245:../stm32f10x_fwlib/src/stm32f10x_rcc.c ****   * @brief  Enables or disables the Clock Security System.
1246:../stm32f10x_fwlib/src/stm32f10x_rcc.c ****   * @param  NewState: new state of the Clock Security System..
1247:../stm32f10x_fwlib/src/stm32f10x_rcc.c ****   *   This parameter can be: ENABLE or DISABLE.
1248:../stm32f10x_fwlib/src/stm32f10x_rcc.c ****   * @retval None
1249:../stm32f10x_fwlib/src/stm32f10x_rcc.c ****   */
1250:../stm32f10x_fwlib/src/stm32f10x_rcc.c **** void RCC_ClockSecuritySystemCmd(FunctionalState NewState)
1251:../stm32f10x_fwlib/src/stm32f10x_rcc.c **** {
 1247              		.loc 1 1251 1 is_stmt 1 view -0
 1248              		.cfi_startproc
 1249              		@ args = 0, pretend = 0, frame = 0
 1250              		@ frame_needed = 0, uses_anonymous_args = 0
 1251              		@ link register save eliminated.
1252:../stm32f10x_fwlib/src/stm32f10x_rcc.c ****   /* Check the parameters */
1253:../stm32f10x_fwlib/src/stm32f10x_rcc.c ****   assert_param(IS_FUNCTIONAL_STATE(NewState));
 1252              		.loc 1 1253 3 view .LVU324
1254:../stm32f10x_fwlib/src/stm32f10x_rcc.c ****   *(__IO uint32_t *) CR_CSSON_BB = (uint32_t)NewState;
 1253              		.loc 1 1254 3 view .LVU325
 1254              		.loc 1 1254 34 is_stmt 0 view .LVU326
 1255 0000 014B     		ldr	r3, .L103
 1256 0002 D864     		str	r0, [r3, #76]
1255:../stm32f10x_fwlib/src/stm32f10x_rcc.c **** }
 1257              		.loc 1 1255 1 view .LVU327
 1258 0004 7047     		bx	lr
 1259              	.L104:
 1260 0006 00BF     		.align	2
 1261              	.L103:
 1262 0008 00004242 		.word	1111621632
 1263              		.cfi_endproc
 1264              	.LFE55:
 1266              		.section	.text.RCC_MCOConfig,"ax",%progbits
 1267              		.align	1
 1268              		.global	RCC_MCOConfig
 1269              		.syntax unified
 1270              		.thumb
 1271              		.thumb_func
 1273              	RCC_MCOConfig:
 1274              	.LVL101:
 1275              	.LFB56:
ARM GAS  C:\Users\28470\AppData\Local\Temp\ccvYo0xZ.s 			page 45


1256:../stm32f10x_fwlib/src/stm32f10x_rcc.c **** 
1257:../stm32f10x_fwlib/src/stm32f10x_rcc.c **** /**
1258:../stm32f10x_fwlib/src/stm32f10x_rcc.c ****   * @brief  Selects the clock source to output on MCO pin.
1259:../stm32f10x_fwlib/src/stm32f10x_rcc.c ****   * @param  RCC_MCO: specifies the clock source to output.
1260:../stm32f10x_fwlib/src/stm32f10x_rcc.c ****   *   
1261:../stm32f10x_fwlib/src/stm32f10x_rcc.c ****   *   For @b STM32_Connectivity_line_devices, this parameter can be one of the
1262:../stm32f10x_fwlib/src/stm32f10x_rcc.c ****   *   following values:       
1263:../stm32f10x_fwlib/src/stm32f10x_rcc.c ****   *     @arg RCC_MCO_NoClock: No clock selected
1264:../stm32f10x_fwlib/src/stm32f10x_rcc.c ****   *     @arg RCC_MCO_SYSCLK: System clock selected
1265:../stm32f10x_fwlib/src/stm32f10x_rcc.c ****   *     @arg RCC_MCO_HSI: HSI oscillator clock selected
1266:../stm32f10x_fwlib/src/stm32f10x_rcc.c ****   *     @arg RCC_MCO_HSE: HSE oscillator clock selected
1267:../stm32f10x_fwlib/src/stm32f10x_rcc.c ****   *     @arg RCC_MCO_PLLCLK_Div2: PLL clock divided by 2 selected
1268:../stm32f10x_fwlib/src/stm32f10x_rcc.c ****   *     @arg RCC_MCO_PLL2CLK: PLL2 clock selected                     
1269:../stm32f10x_fwlib/src/stm32f10x_rcc.c ****   *     @arg RCC_MCO_PLL3CLK_Div2: PLL3 clock divided by 2 selected   
1270:../stm32f10x_fwlib/src/stm32f10x_rcc.c ****   *     @arg RCC_MCO_XT1: External 3-25 MHz oscillator clock selected  
1271:../stm32f10x_fwlib/src/stm32f10x_rcc.c ****   *     @arg RCC_MCO_PLL3CLK: PLL3 clock selected 
1272:../stm32f10x_fwlib/src/stm32f10x_rcc.c ****   * 
1273:../stm32f10x_fwlib/src/stm32f10x_rcc.c ****   *   For  @b other_STM32_devices, this parameter can be one of the following values:        
1274:../stm32f10x_fwlib/src/stm32f10x_rcc.c ****   *     @arg RCC_MCO_NoClock: No clock selected
1275:../stm32f10x_fwlib/src/stm32f10x_rcc.c ****   *     @arg RCC_MCO_SYSCLK: System clock selected
1276:../stm32f10x_fwlib/src/stm32f10x_rcc.c ****   *     @arg RCC_MCO_HSI: HSI oscillator clock selected
1277:../stm32f10x_fwlib/src/stm32f10x_rcc.c ****   *     @arg RCC_MCO_HSE: HSE oscillator clock selected
1278:../stm32f10x_fwlib/src/stm32f10x_rcc.c ****   *     @arg RCC_MCO_PLLCLK_Div2: PLL clock divided by 2 selected
1279:../stm32f10x_fwlib/src/stm32f10x_rcc.c ****   *   
1280:../stm32f10x_fwlib/src/stm32f10x_rcc.c ****   * @retval None
1281:../stm32f10x_fwlib/src/stm32f10x_rcc.c ****   */
1282:../stm32f10x_fwlib/src/stm32f10x_rcc.c **** void RCC_MCOConfig(uint8_t RCC_MCO)
1283:../stm32f10x_fwlib/src/stm32f10x_rcc.c **** {
 1276              		.loc 1 1283 1 is_stmt 1 view -0
 1277              		.cfi_startproc
 1278              		@ args = 0, pretend = 0, frame = 0
 1279              		@ frame_needed = 0, uses_anonymous_args = 0
 1280              		@ link register save eliminated.
1284:../stm32f10x_fwlib/src/stm32f10x_rcc.c ****   /* Check the parameters */
1285:../stm32f10x_fwlib/src/stm32f10x_rcc.c ****   assert_param(IS_RCC_MCO(RCC_MCO));
 1281              		.loc 1 1285 3 view .LVU329
1286:../stm32f10x_fwlib/src/stm32f10x_rcc.c **** 
1287:../stm32f10x_fwlib/src/stm32f10x_rcc.c ****   /* Perform Byte access to MCO bits to select the MCO source */
1288:../stm32f10x_fwlib/src/stm32f10x_rcc.c ****   *(__IO uint8_t *) CFGR_BYTE4_ADDRESS = RCC_MCO;
 1282              		.loc 1 1288 3 view .LVU330
 1283              		.loc 1 1288 40 is_stmt 0 view .LVU331
 1284 0000 014B     		ldr	r3, .L106
 1285 0002 D871     		strb	r0, [r3, #7]
1289:../stm32f10x_fwlib/src/stm32f10x_rcc.c **** }
 1286              		.loc 1 1289 1 view .LVU332
 1287 0004 7047     		bx	lr
 1288              	.L107:
 1289 0006 00BF     		.align	2
 1290              	.L106:
 1291 0008 00100240 		.word	1073876992
 1292              		.cfi_endproc
 1293              	.LFE56:
 1295              		.section	.text.RCC_GetFlagStatus,"ax",%progbits
 1296              		.align	1
 1297              		.global	RCC_GetFlagStatus
 1298              		.syntax unified
 1299              		.thumb
ARM GAS  C:\Users\28470\AppData\Local\Temp\ccvYo0xZ.s 			page 46


 1300              		.thumb_func
 1302              	RCC_GetFlagStatus:
 1303              	.LVL102:
 1304              	.LFB57:
1290:../stm32f10x_fwlib/src/stm32f10x_rcc.c **** 
1291:../stm32f10x_fwlib/src/stm32f10x_rcc.c **** /**
1292:../stm32f10x_fwlib/src/stm32f10x_rcc.c ****   * @brief  Checks whether the specified RCC flag is set or not.
1293:../stm32f10x_fwlib/src/stm32f10x_rcc.c ****   * @param  RCC_FLAG: specifies the flag to check.
1294:../stm32f10x_fwlib/src/stm32f10x_rcc.c ****   *   
1295:../stm32f10x_fwlib/src/stm32f10x_rcc.c ****   *   For @b STM32_Connectivity_line_devices, this parameter can be one of the
1296:../stm32f10x_fwlib/src/stm32f10x_rcc.c ****   *   following values:
1297:../stm32f10x_fwlib/src/stm32f10x_rcc.c ****   *     @arg RCC_FLAG_HSIRDY: HSI oscillator clock ready
1298:../stm32f10x_fwlib/src/stm32f10x_rcc.c ****   *     @arg RCC_FLAG_HSERDY: HSE oscillator clock ready
1299:../stm32f10x_fwlib/src/stm32f10x_rcc.c ****   *     @arg RCC_FLAG_PLLRDY: PLL clock ready
1300:../stm32f10x_fwlib/src/stm32f10x_rcc.c ****   *     @arg RCC_FLAG_PLL2RDY: PLL2 clock ready      
1301:../stm32f10x_fwlib/src/stm32f10x_rcc.c ****   *     @arg RCC_FLAG_PLL3RDY: PLL3 clock ready                           
1302:../stm32f10x_fwlib/src/stm32f10x_rcc.c ****   *     @arg RCC_FLAG_LSERDY: LSE oscillator clock ready
1303:../stm32f10x_fwlib/src/stm32f10x_rcc.c ****   *     @arg RCC_FLAG_LSIRDY: LSI oscillator clock ready
1304:../stm32f10x_fwlib/src/stm32f10x_rcc.c ****   *     @arg RCC_FLAG_PINRST: Pin reset
1305:../stm32f10x_fwlib/src/stm32f10x_rcc.c ****   *     @arg RCC_FLAG_PORRST: POR/PDR reset
1306:../stm32f10x_fwlib/src/stm32f10x_rcc.c ****   *     @arg RCC_FLAG_SFTRST: Software reset
1307:../stm32f10x_fwlib/src/stm32f10x_rcc.c ****   *     @arg RCC_FLAG_IWDGRST: Independent Watchdog reset
1308:../stm32f10x_fwlib/src/stm32f10x_rcc.c ****   *     @arg RCC_FLAG_WWDGRST: Window Watchdog reset
1309:../stm32f10x_fwlib/src/stm32f10x_rcc.c ****   *     @arg RCC_FLAG_LPWRRST: Low Power reset
1310:../stm32f10x_fwlib/src/stm32f10x_rcc.c ****   * 
1311:../stm32f10x_fwlib/src/stm32f10x_rcc.c ****   *   For @b other_STM32_devices, this parameter can be one of the following values:        
1312:../stm32f10x_fwlib/src/stm32f10x_rcc.c ****   *     @arg RCC_FLAG_HSIRDY: HSI oscillator clock ready
1313:../stm32f10x_fwlib/src/stm32f10x_rcc.c ****   *     @arg RCC_FLAG_HSERDY: HSE oscillator clock ready
1314:../stm32f10x_fwlib/src/stm32f10x_rcc.c ****   *     @arg RCC_FLAG_PLLRDY: PLL clock ready
1315:../stm32f10x_fwlib/src/stm32f10x_rcc.c ****   *     @arg RCC_FLAG_LSERDY: LSE oscillator clock ready
1316:../stm32f10x_fwlib/src/stm32f10x_rcc.c ****   *     @arg RCC_FLAG_LSIRDY: LSI oscillator clock ready
1317:../stm32f10x_fwlib/src/stm32f10x_rcc.c ****   *     @arg RCC_FLAG_PINRST: Pin reset
1318:../stm32f10x_fwlib/src/stm32f10x_rcc.c ****   *     @arg RCC_FLAG_PORRST: POR/PDR reset
1319:../stm32f10x_fwlib/src/stm32f10x_rcc.c ****   *     @arg RCC_FLAG_SFTRST: Software reset
1320:../stm32f10x_fwlib/src/stm32f10x_rcc.c ****   *     @arg RCC_FLAG_IWDGRST: Independent Watchdog reset
1321:../stm32f10x_fwlib/src/stm32f10x_rcc.c ****   *     @arg RCC_FLAG_WWDGRST: Window Watchdog reset
1322:../stm32f10x_fwlib/src/stm32f10x_rcc.c ****   *     @arg RCC_FLAG_LPWRRST: Low Power reset
1323:../stm32f10x_fwlib/src/stm32f10x_rcc.c ****   *   
1324:../stm32f10x_fwlib/src/stm32f10x_rcc.c ****   * @retval The new state of RCC_FLAG (SET or RESET).
1325:../stm32f10x_fwlib/src/stm32f10x_rcc.c ****   */
1326:../stm32f10x_fwlib/src/stm32f10x_rcc.c **** FlagStatus RCC_GetFlagStatus(uint8_t RCC_FLAG)
1327:../stm32f10x_fwlib/src/stm32f10x_rcc.c **** {
 1305              		.loc 1 1327 1 is_stmt 1 view -0
 1306              		.cfi_startproc
 1307              		@ args = 0, pretend = 0, frame = 0
 1308              		@ frame_needed = 0, uses_anonymous_args = 0
 1309              		@ link register save eliminated.
1328:../stm32f10x_fwlib/src/stm32f10x_rcc.c ****   uint32_t tmp = 0;
 1310              		.loc 1 1328 3 view .LVU334
1329:../stm32f10x_fwlib/src/stm32f10x_rcc.c ****   uint32_t statusreg = 0;
 1311              		.loc 1 1329 3 view .LVU335
1330:../stm32f10x_fwlib/src/stm32f10x_rcc.c ****   FlagStatus bitstatus = RESET;
 1312              		.loc 1 1330 3 view .LVU336
1331:../stm32f10x_fwlib/src/stm32f10x_rcc.c ****   /* Check the parameters */
1332:../stm32f10x_fwlib/src/stm32f10x_rcc.c ****   assert_param(IS_RCC_FLAG(RCC_FLAG));
 1313              		.loc 1 1332 3 view .LVU337
1333:../stm32f10x_fwlib/src/stm32f10x_rcc.c **** 
ARM GAS  C:\Users\28470\AppData\Local\Temp\ccvYo0xZ.s 			page 47


1334:../stm32f10x_fwlib/src/stm32f10x_rcc.c ****   /* Get the RCC register index */
1335:../stm32f10x_fwlib/src/stm32f10x_rcc.c ****   tmp = RCC_FLAG >> 5;
 1314              		.loc 1 1335 3 view .LVU338
 1315              		.loc 1 1335 18 is_stmt 0 view .LVU339
 1316 0000 4309     		lsrs	r3, r0, #5
 1317              	.LVL103:
1336:../stm32f10x_fwlib/src/stm32f10x_rcc.c ****   if (tmp == 1)               /* The flag to check is in CR register */
 1318              		.loc 1 1336 3 is_stmt 1 view .LVU340
 1319              		.loc 1 1336 6 is_stmt 0 view .LVU341
 1320 0002 012B     		cmp	r3, #1
 1321 0004 0CD0     		beq	.L114
1337:../stm32f10x_fwlib/src/stm32f10x_rcc.c ****   {
1338:../stm32f10x_fwlib/src/stm32f10x_rcc.c ****     statusreg = RCC->CR;
1339:../stm32f10x_fwlib/src/stm32f10x_rcc.c ****   }
1340:../stm32f10x_fwlib/src/stm32f10x_rcc.c ****   else if (tmp == 2)          /* The flag to check is in BDCR register */
 1322              		.loc 1 1340 8 is_stmt 1 view .LVU342
 1323              		.loc 1 1340 11 is_stmt 0 view .LVU343
 1324 0006 022B     		cmp	r3, #2
 1325 0008 0DD0     		beq	.L115
1341:../stm32f10x_fwlib/src/stm32f10x_rcc.c ****   {
1342:../stm32f10x_fwlib/src/stm32f10x_rcc.c ****     statusreg = RCC->BDCR;
1343:../stm32f10x_fwlib/src/stm32f10x_rcc.c ****   }
1344:../stm32f10x_fwlib/src/stm32f10x_rcc.c ****   else                       /* The flag to check is in CSR register */
1345:../stm32f10x_fwlib/src/stm32f10x_rcc.c ****   {
1346:../stm32f10x_fwlib/src/stm32f10x_rcc.c ****     statusreg = RCC->CSR;
 1326              		.loc 1 1346 5 is_stmt 1 view .LVU344
 1327              		.loc 1 1346 15 is_stmt 0 view .LVU345
 1328 000a 094B     		ldr	r3, .L116
 1329              	.LVL104:
 1330              		.loc 1 1346 15 view .LVU346
 1331 000c 5B6A     		ldr	r3, [r3, #36]
 1332              	.LVL105:
 1333              	.L110:
1347:../stm32f10x_fwlib/src/stm32f10x_rcc.c ****   }
1348:../stm32f10x_fwlib/src/stm32f10x_rcc.c **** 
1349:../stm32f10x_fwlib/src/stm32f10x_rcc.c ****   /* Get the flag position */
1350:../stm32f10x_fwlib/src/stm32f10x_rcc.c ****   tmp = RCC_FLAG & FLAG_Mask;
 1334              		.loc 1 1350 3 is_stmt 1 view .LVU347
 1335              		.loc 1 1350 7 is_stmt 0 view .LVU348
 1336 000e 00F01F00 		and	r0, r0, #31
 1337              	.LVL106:
1351:../stm32f10x_fwlib/src/stm32f10x_rcc.c ****   if ((statusreg & ((uint32_t)1 << tmp)) != (uint32_t)RESET)
 1338              		.loc 1 1351 3 is_stmt 1 view .LVU349
 1339              		.loc 1 1351 42 is_stmt 0 view .LVU350
 1340 0012 23FA00F0 		lsr	r0, r3, r0
 1341              	.LVL107:
 1342              		.loc 1 1351 6 view .LVU351
 1343 0016 10F0010F 		tst	r0, #1
 1344 001a 07D0     		beq	.L113
1352:../stm32f10x_fwlib/src/stm32f10x_rcc.c ****   {
1353:../stm32f10x_fwlib/src/stm32f10x_rcc.c ****     bitstatus = SET;
 1345              		.loc 1 1353 15 view .LVU352
 1346 001c 0120     		movs	r0, #1
 1347 001e 7047     		bx	lr
 1348              	.LVL108:
 1349              	.L114:
1338:../stm32f10x_fwlib/src/stm32f10x_rcc.c ****   }
ARM GAS  C:\Users\28470\AppData\Local\Temp\ccvYo0xZ.s 			page 48


 1350              		.loc 1 1338 5 is_stmt 1 view .LVU353
1338:../stm32f10x_fwlib/src/stm32f10x_rcc.c ****   }
 1351              		.loc 1 1338 15 is_stmt 0 view .LVU354
 1352 0020 034B     		ldr	r3, .L116
 1353              	.LVL109:
1338:../stm32f10x_fwlib/src/stm32f10x_rcc.c ****   }
 1354              		.loc 1 1338 15 view .LVU355
 1355 0022 1B68     		ldr	r3, [r3]
 1356              	.LVL110:
1338:../stm32f10x_fwlib/src/stm32f10x_rcc.c ****   }
 1357              		.loc 1 1338 15 view .LVU356
 1358 0024 F3E7     		b	.L110
 1359              	.LVL111:
 1360              	.L115:
1342:../stm32f10x_fwlib/src/stm32f10x_rcc.c ****   }
 1361              		.loc 1 1342 5 is_stmt 1 view .LVU357
1342:../stm32f10x_fwlib/src/stm32f10x_rcc.c ****   }
 1362              		.loc 1 1342 15 is_stmt 0 view .LVU358
 1363 0026 024B     		ldr	r3, .L116
 1364              	.LVL112:
1342:../stm32f10x_fwlib/src/stm32f10x_rcc.c ****   }
 1365              		.loc 1 1342 15 view .LVU359
 1366 0028 1B6A     		ldr	r3, [r3, #32]
 1367              	.LVL113:
1342:../stm32f10x_fwlib/src/stm32f10x_rcc.c ****   }
 1368              		.loc 1 1342 15 view .LVU360
 1369 002a F0E7     		b	.L110
 1370              	.LVL114:
 1371              	.L113:
1354:../stm32f10x_fwlib/src/stm32f10x_rcc.c ****   }
1355:../stm32f10x_fwlib/src/stm32f10x_rcc.c ****   else
1356:../stm32f10x_fwlib/src/stm32f10x_rcc.c ****   {
1357:../stm32f10x_fwlib/src/stm32f10x_rcc.c ****     bitstatus = RESET;
 1372              		.loc 1 1357 15 view .LVU361
 1373 002c 0020     		movs	r0, #0
 1374              	.LVL115:
1358:../stm32f10x_fwlib/src/stm32f10x_rcc.c ****   }
1359:../stm32f10x_fwlib/src/stm32f10x_rcc.c **** 
1360:../stm32f10x_fwlib/src/stm32f10x_rcc.c ****   /* Return the flag status */
1361:../stm32f10x_fwlib/src/stm32f10x_rcc.c ****   return bitstatus;
 1375              		.loc 1 1361 3 is_stmt 1 view .LVU362
1362:../stm32f10x_fwlib/src/stm32f10x_rcc.c **** }
 1376              		.loc 1 1362 1 is_stmt 0 view .LVU363
 1377 002e 7047     		bx	lr
 1378              	.L117:
 1379              		.align	2
 1380              	.L116:
 1381 0030 00100240 		.word	1073876992
 1382              		.cfi_endproc
 1383              	.LFE57:
 1385              		.section	.text.RCC_WaitForHSEStartUp,"ax",%progbits
 1386              		.align	1
 1387              		.global	RCC_WaitForHSEStartUp
 1388              		.syntax unified
 1389              		.thumb
 1390              		.thumb_func
 1392              	RCC_WaitForHSEStartUp:
ARM GAS  C:\Users\28470\AppData\Local\Temp\ccvYo0xZ.s 			page 49


 1393              	.LFB31:
 305:../stm32f10x_fwlib/src/stm32f10x_rcc.c ****   __IO uint32_t StartUpCounter = 0;
 1394              		.loc 1 305 1 is_stmt 1 view -0
 1395              		.cfi_startproc
 1396              		@ args = 0, pretend = 0, frame = 8
 1397              		@ frame_needed = 0, uses_anonymous_args = 0
 1398 0000 00B5     		push	{lr}
 1399              	.LCFI3:
 1400              		.cfi_def_cfa_offset 4
 1401              		.cfi_offset 14, -4
 1402 0002 83B0     		sub	sp, sp, #12
 1403              	.LCFI4:
 1404              		.cfi_def_cfa_offset 16
 306:../stm32f10x_fwlib/src/stm32f10x_rcc.c ****   ErrorStatus status = ERROR;
 1405              		.loc 1 306 3 view .LVU365
 306:../stm32f10x_fwlib/src/stm32f10x_rcc.c ****   ErrorStatus status = ERROR;
 1406              		.loc 1 306 17 is_stmt 0 view .LVU366
 1407 0004 0023     		movs	r3, #0
 1408 0006 0193     		str	r3, [sp, #4]
 307:../stm32f10x_fwlib/src/stm32f10x_rcc.c ****   FlagStatus HSEStatus = RESET;
 1409              		.loc 1 307 3 is_stmt 1 view .LVU367
 1410              	.LVL116:
 308:../stm32f10x_fwlib/src/stm32f10x_rcc.c ****   
 1411              		.loc 1 308 3 view .LVU368
 1412              	.L120:
 311:../stm32f10x_fwlib/src/stm32f10x_rcc.c ****   {
 1413              		.loc 1 311 3 discriminator 2 view .LVU369
 313:../stm32f10x_fwlib/src/stm32f10x_rcc.c ****     StartUpCounter++;  
 1414              		.loc 1 313 5 discriminator 2 view .LVU370
 313:../stm32f10x_fwlib/src/stm32f10x_rcc.c ****     StartUpCounter++;  
 1415              		.loc 1 313 17 is_stmt 0 discriminator 2 view .LVU371
 1416 0008 3120     		movs	r0, #49
 1417 000a FFF7FEFF 		bl	RCC_GetFlagStatus
 1418              	.LVL117:
 314:../stm32f10x_fwlib/src/stm32f10x_rcc.c ****   } while((StartUpCounter != HSE_STARTUP_TIMEOUT) && (HSEStatus == RESET));
 1419              		.loc 1 314 5 is_stmt 1 discriminator 2 view .LVU372
 314:../stm32f10x_fwlib/src/stm32f10x_rcc.c ****   } while((StartUpCounter != HSE_STARTUP_TIMEOUT) && (HSEStatus == RESET));
 1420              		.loc 1 314 19 is_stmt 0 discriminator 2 view .LVU373
 1421 000e 019B     		ldr	r3, [sp, #4]
 1422 0010 0133     		adds	r3, r3, #1
 1423 0012 0193     		str	r3, [sp, #4]
 315:../stm32f10x_fwlib/src/stm32f10x_rcc.c ****   
 1424              		.loc 1 315 10 is_stmt 1 discriminator 2 view .LVU374
 315:../stm32f10x_fwlib/src/stm32f10x_rcc.c ****   
 1425              		.loc 1 315 27 is_stmt 0 discriminator 2 view .LVU375
 1426 0014 019B     		ldr	r3, [sp, #4]
 315:../stm32f10x_fwlib/src/stm32f10x_rcc.c ****   
 1427              		.loc 1 315 3 discriminator 2 view .LVU376
 1428 0016 B3F5A06F 		cmp	r3, #1280
 1429 001a 01D0     		beq	.L119
 315:../stm32f10x_fwlib/src/stm32f10x_rcc.c ****   
 1430              		.loc 1 315 51 discriminator 1 view .LVU377
 1431 001c 0028     		cmp	r0, #0
 1432 001e F3D0     		beq	.L120
 1433              	.L119:
 317:../stm32f10x_fwlib/src/stm32f10x_rcc.c ****   {
 1434              		.loc 1 317 3 is_stmt 1 view .LVU378
ARM GAS  C:\Users\28470\AppData\Local\Temp\ccvYo0xZ.s 			page 50


 317:../stm32f10x_fwlib/src/stm32f10x_rcc.c ****   {
 1435              		.loc 1 317 7 is_stmt 0 view .LVU379
 1436 0020 3120     		movs	r0, #49
 1437              	.LVL118:
 317:../stm32f10x_fwlib/src/stm32f10x_rcc.c ****   {
 1438              		.loc 1 317 7 view .LVU380
 1439 0022 FFF7FEFF 		bl	RCC_GetFlagStatus
 1440              	.LVL119:
 317:../stm32f10x_fwlib/src/stm32f10x_rcc.c ****   {
 1441              		.loc 1 317 6 view .LVU381
 1442 0026 00B1     		cbz	r0, .L121
 319:../stm32f10x_fwlib/src/stm32f10x_rcc.c ****   }
 1443              		.loc 1 319 12 view .LVU382
 1444 0028 0120     		movs	r0, #1
 1445              	.L121:
 1446              	.LVL120:
 325:../stm32f10x_fwlib/src/stm32f10x_rcc.c **** }
 1447              		.loc 1 325 3 is_stmt 1 view .LVU383
 326:../stm32f10x_fwlib/src/stm32f10x_rcc.c **** 
 1448              		.loc 1 326 1 is_stmt 0 view .LVU384
 1449 002a 03B0     		add	sp, sp, #12
 1450              	.LCFI5:
 1451              		.cfi_def_cfa_offset 4
 1452              		@ sp needed
 1453 002c 5DF804FB 		ldr	pc, [sp], #4
 1454              		.cfi_endproc
 1455              	.LFE31:
 1457              		.section	.text.RCC_ClearFlag,"ax",%progbits
 1458              		.align	1
 1459              		.global	RCC_ClearFlag
 1460              		.syntax unified
 1461              		.thumb
 1462              		.thumb_func
 1464              	RCC_ClearFlag:
 1465              	.LFB58:
1363:../stm32f10x_fwlib/src/stm32f10x_rcc.c **** 
1364:../stm32f10x_fwlib/src/stm32f10x_rcc.c **** /**
1365:../stm32f10x_fwlib/src/stm32f10x_rcc.c ****   * @brief  Clears the RCC reset flags.
1366:../stm32f10x_fwlib/src/stm32f10x_rcc.c ****   * @note   The reset flags are: RCC_FLAG_PINRST, RCC_FLAG_PORRST, RCC_FLAG_SFTRST,
1367:../stm32f10x_fwlib/src/stm32f10x_rcc.c ****   *   RCC_FLAG_IWDGRST, RCC_FLAG_WWDGRST, RCC_FLAG_LPWRRST
1368:../stm32f10x_fwlib/src/stm32f10x_rcc.c ****   * @param  None
1369:../stm32f10x_fwlib/src/stm32f10x_rcc.c ****   * @retval None
1370:../stm32f10x_fwlib/src/stm32f10x_rcc.c ****   */
1371:../stm32f10x_fwlib/src/stm32f10x_rcc.c **** void RCC_ClearFlag(void)
1372:../stm32f10x_fwlib/src/stm32f10x_rcc.c **** {
 1466              		.loc 1 1372 1 is_stmt 1 view -0
 1467              		.cfi_startproc
 1468              		@ args = 0, pretend = 0, frame = 0
 1469              		@ frame_needed = 0, uses_anonymous_args = 0
 1470              		@ link register save eliminated.
1373:../stm32f10x_fwlib/src/stm32f10x_rcc.c ****   /* Set RMVF bit to clear the reset flags */
1374:../stm32f10x_fwlib/src/stm32f10x_rcc.c ****   RCC->CSR |= CSR_RMVF_Set;
 1471              		.loc 1 1374 3 view .LVU386
 1472              		.loc 1 1374 12 is_stmt 0 view .LVU387
 1473 0000 024A     		ldr	r2, .L124
 1474 0002 536A     		ldr	r3, [r2, #36]
 1475 0004 43F08073 		orr	r3, r3, #16777216
ARM GAS  C:\Users\28470\AppData\Local\Temp\ccvYo0xZ.s 			page 51


 1476 0008 5362     		str	r3, [r2, #36]
1375:../stm32f10x_fwlib/src/stm32f10x_rcc.c **** }
 1477              		.loc 1 1375 1 view .LVU388
 1478 000a 7047     		bx	lr
 1479              	.L125:
 1480              		.align	2
 1481              	.L124:
 1482 000c 00100240 		.word	1073876992
 1483              		.cfi_endproc
 1484              	.LFE58:
 1486              		.section	.text.RCC_GetITStatus,"ax",%progbits
 1487              		.align	1
 1488              		.global	RCC_GetITStatus
 1489              		.syntax unified
 1490              		.thumb
 1491              		.thumb_func
 1493              	RCC_GetITStatus:
 1494              	.LVL121:
 1495              	.LFB59:
1376:../stm32f10x_fwlib/src/stm32f10x_rcc.c **** 
1377:../stm32f10x_fwlib/src/stm32f10x_rcc.c **** /**
1378:../stm32f10x_fwlib/src/stm32f10x_rcc.c ****   * @brief  Checks whether the specified RCC interrupt has occurred or not.
1379:../stm32f10x_fwlib/src/stm32f10x_rcc.c ****   * @param  RCC_IT: specifies the RCC interrupt source to check.
1380:../stm32f10x_fwlib/src/stm32f10x_rcc.c ****   *   
1381:../stm32f10x_fwlib/src/stm32f10x_rcc.c ****   *   For @b STM32_Connectivity_line_devices, this parameter can be one of the
1382:../stm32f10x_fwlib/src/stm32f10x_rcc.c ****   *   following values:
1383:../stm32f10x_fwlib/src/stm32f10x_rcc.c ****   *     @arg RCC_IT_LSIRDY: LSI ready interrupt
1384:../stm32f10x_fwlib/src/stm32f10x_rcc.c ****   *     @arg RCC_IT_LSERDY: LSE ready interrupt
1385:../stm32f10x_fwlib/src/stm32f10x_rcc.c ****   *     @arg RCC_IT_HSIRDY: HSI ready interrupt
1386:../stm32f10x_fwlib/src/stm32f10x_rcc.c ****   *     @arg RCC_IT_HSERDY: HSE ready interrupt
1387:../stm32f10x_fwlib/src/stm32f10x_rcc.c ****   *     @arg RCC_IT_PLLRDY: PLL ready interrupt
1388:../stm32f10x_fwlib/src/stm32f10x_rcc.c ****   *     @arg RCC_IT_PLL2RDY: PLL2 ready interrupt 
1389:../stm32f10x_fwlib/src/stm32f10x_rcc.c ****   *     @arg RCC_IT_PLL3RDY: PLL3 ready interrupt                      
1390:../stm32f10x_fwlib/src/stm32f10x_rcc.c ****   *     @arg RCC_IT_CSS: Clock Security System interrupt
1391:../stm32f10x_fwlib/src/stm32f10x_rcc.c ****   * 
1392:../stm32f10x_fwlib/src/stm32f10x_rcc.c ****   *   For @b other_STM32_devices, this parameter can be one of the following values:        
1393:../stm32f10x_fwlib/src/stm32f10x_rcc.c ****   *     @arg RCC_IT_LSIRDY: LSI ready interrupt
1394:../stm32f10x_fwlib/src/stm32f10x_rcc.c ****   *     @arg RCC_IT_LSERDY: LSE ready interrupt
1395:../stm32f10x_fwlib/src/stm32f10x_rcc.c ****   *     @arg RCC_IT_HSIRDY: HSI ready interrupt
1396:../stm32f10x_fwlib/src/stm32f10x_rcc.c ****   *     @arg RCC_IT_HSERDY: HSE ready interrupt
1397:../stm32f10x_fwlib/src/stm32f10x_rcc.c ****   *     @arg RCC_IT_PLLRDY: PLL ready interrupt
1398:../stm32f10x_fwlib/src/stm32f10x_rcc.c ****   *     @arg RCC_IT_CSS: Clock Security System interrupt
1399:../stm32f10x_fwlib/src/stm32f10x_rcc.c ****   *   
1400:../stm32f10x_fwlib/src/stm32f10x_rcc.c ****   * @retval The new state of RCC_IT (SET or RESET).
1401:../stm32f10x_fwlib/src/stm32f10x_rcc.c ****   */
1402:../stm32f10x_fwlib/src/stm32f10x_rcc.c **** ITStatus RCC_GetITStatus(uint8_t RCC_IT)
1403:../stm32f10x_fwlib/src/stm32f10x_rcc.c **** {
 1496              		.loc 1 1403 1 is_stmt 1 view -0
 1497              		.cfi_startproc
 1498              		@ args = 0, pretend = 0, frame = 0
 1499              		@ frame_needed = 0, uses_anonymous_args = 0
 1500              		@ link register save eliminated.
1404:../stm32f10x_fwlib/src/stm32f10x_rcc.c ****   ITStatus bitstatus = RESET;
 1501              		.loc 1 1404 3 view .LVU390
1405:../stm32f10x_fwlib/src/stm32f10x_rcc.c ****   /* Check the parameters */
1406:../stm32f10x_fwlib/src/stm32f10x_rcc.c ****   assert_param(IS_RCC_GET_IT(RCC_IT));
 1502              		.loc 1 1406 3 view .LVU391
ARM GAS  C:\Users\28470\AppData\Local\Temp\ccvYo0xZ.s 			page 52


1407:../stm32f10x_fwlib/src/stm32f10x_rcc.c **** 
1408:../stm32f10x_fwlib/src/stm32f10x_rcc.c ****   /* Check the status of the specified RCC interrupt */
1409:../stm32f10x_fwlib/src/stm32f10x_rcc.c ****   if ((RCC->CIR & RCC_IT) != (uint32_t)RESET)
 1503              		.loc 1 1409 3 view .LVU392
 1504              		.loc 1 1409 11 is_stmt 0 view .LVU393
 1505 0000 034B     		ldr	r3, .L129
 1506 0002 9B68     		ldr	r3, [r3, #8]
 1507              		.loc 1 1409 6 view .LVU394
 1508 0004 1842     		tst	r0, r3
 1509 0006 01D0     		beq	.L128
1410:../stm32f10x_fwlib/src/stm32f10x_rcc.c ****   {
1411:../stm32f10x_fwlib/src/stm32f10x_rcc.c ****     bitstatus = SET;
 1510              		.loc 1 1411 15 view .LVU395
 1511 0008 0120     		movs	r0, #1
 1512              	.LVL122:
 1513              		.loc 1 1411 15 view .LVU396
 1514 000a 7047     		bx	lr
 1515              	.LVL123:
 1516              	.L128:
1412:../stm32f10x_fwlib/src/stm32f10x_rcc.c ****   }
1413:../stm32f10x_fwlib/src/stm32f10x_rcc.c ****   else
1414:../stm32f10x_fwlib/src/stm32f10x_rcc.c ****   {
1415:../stm32f10x_fwlib/src/stm32f10x_rcc.c ****     bitstatus = RESET;
 1517              		.loc 1 1415 15 view .LVU397
 1518 000c 0020     		movs	r0, #0
 1519              	.LVL124:
1416:../stm32f10x_fwlib/src/stm32f10x_rcc.c ****   }
1417:../stm32f10x_fwlib/src/stm32f10x_rcc.c **** 
1418:../stm32f10x_fwlib/src/stm32f10x_rcc.c ****   /* Return the RCC_IT status */
1419:../stm32f10x_fwlib/src/stm32f10x_rcc.c ****   return  bitstatus;
 1520              		.loc 1 1419 3 is_stmt 1 view .LVU398
1420:../stm32f10x_fwlib/src/stm32f10x_rcc.c **** }
 1521              		.loc 1 1420 1 is_stmt 0 view .LVU399
 1522 000e 7047     		bx	lr
 1523              	.L130:
 1524              		.align	2
 1525              	.L129:
 1526 0010 00100240 		.word	1073876992
 1527              		.cfi_endproc
 1528              	.LFE59:
 1530              		.section	.text.RCC_ClearITPendingBit,"ax",%progbits
 1531              		.align	1
 1532              		.global	RCC_ClearITPendingBit
 1533              		.syntax unified
 1534              		.thumb
 1535              		.thumb_func
 1537              	RCC_ClearITPendingBit:
 1538              	.LVL125:
 1539              	.LFB60:
1421:../stm32f10x_fwlib/src/stm32f10x_rcc.c **** 
1422:../stm32f10x_fwlib/src/stm32f10x_rcc.c **** /**
1423:../stm32f10x_fwlib/src/stm32f10x_rcc.c ****   * @brief  Clears the RCC's interrupt pending bits.
1424:../stm32f10x_fwlib/src/stm32f10x_rcc.c ****   * @param  RCC_IT: specifies the interrupt pending bit to clear.
1425:../stm32f10x_fwlib/src/stm32f10x_rcc.c ****   *   
1426:../stm32f10x_fwlib/src/stm32f10x_rcc.c ****   *   For @b STM32_Connectivity_line_devices, this parameter can be any combination
1427:../stm32f10x_fwlib/src/stm32f10x_rcc.c ****   *   of the following values:
1428:../stm32f10x_fwlib/src/stm32f10x_rcc.c ****   *     @arg RCC_IT_LSIRDY: LSI ready interrupt
ARM GAS  C:\Users\28470\AppData\Local\Temp\ccvYo0xZ.s 			page 53


1429:../stm32f10x_fwlib/src/stm32f10x_rcc.c ****   *     @arg RCC_IT_LSERDY: LSE ready interrupt
1430:../stm32f10x_fwlib/src/stm32f10x_rcc.c ****   *     @arg RCC_IT_HSIRDY: HSI ready interrupt
1431:../stm32f10x_fwlib/src/stm32f10x_rcc.c ****   *     @arg RCC_IT_HSERDY: HSE ready interrupt
1432:../stm32f10x_fwlib/src/stm32f10x_rcc.c ****   *     @arg RCC_IT_PLLRDY: PLL ready interrupt
1433:../stm32f10x_fwlib/src/stm32f10x_rcc.c ****   *     @arg RCC_IT_PLL2RDY: PLL2 ready interrupt 
1434:../stm32f10x_fwlib/src/stm32f10x_rcc.c ****   *     @arg RCC_IT_PLL3RDY: PLL3 ready interrupt                      
1435:../stm32f10x_fwlib/src/stm32f10x_rcc.c ****   *     @arg RCC_IT_CSS: Clock Security System interrupt
1436:../stm32f10x_fwlib/src/stm32f10x_rcc.c ****   * 
1437:../stm32f10x_fwlib/src/stm32f10x_rcc.c ****   *   For @b other_STM32_devices, this parameter can be any combination of the
1438:../stm32f10x_fwlib/src/stm32f10x_rcc.c ****   *   following values:        
1439:../stm32f10x_fwlib/src/stm32f10x_rcc.c ****   *     @arg RCC_IT_LSIRDY: LSI ready interrupt
1440:../stm32f10x_fwlib/src/stm32f10x_rcc.c ****   *     @arg RCC_IT_LSERDY: LSE ready interrupt
1441:../stm32f10x_fwlib/src/stm32f10x_rcc.c ****   *     @arg RCC_IT_HSIRDY: HSI ready interrupt
1442:../stm32f10x_fwlib/src/stm32f10x_rcc.c ****   *     @arg RCC_IT_HSERDY: HSE ready interrupt
1443:../stm32f10x_fwlib/src/stm32f10x_rcc.c ****   *     @arg RCC_IT_PLLRDY: PLL ready interrupt
1444:../stm32f10x_fwlib/src/stm32f10x_rcc.c ****   *   
1445:../stm32f10x_fwlib/src/stm32f10x_rcc.c ****   *     @arg RCC_IT_CSS: Clock Security System interrupt
1446:../stm32f10x_fwlib/src/stm32f10x_rcc.c ****   * @retval None
1447:../stm32f10x_fwlib/src/stm32f10x_rcc.c ****   */
1448:../stm32f10x_fwlib/src/stm32f10x_rcc.c **** void RCC_ClearITPendingBit(uint8_t RCC_IT)
1449:../stm32f10x_fwlib/src/stm32f10x_rcc.c **** {
 1540              		.loc 1 1449 1 is_stmt 1 view -0
 1541              		.cfi_startproc
 1542              		@ args = 0, pretend = 0, frame = 0
 1543              		@ frame_needed = 0, uses_anonymous_args = 0
 1544              		@ link register save eliminated.
1450:../stm32f10x_fwlib/src/stm32f10x_rcc.c ****   /* Check the parameters */
1451:../stm32f10x_fwlib/src/stm32f10x_rcc.c ****   assert_param(IS_RCC_CLEAR_IT(RCC_IT));
 1545              		.loc 1 1451 3 view .LVU401
1452:../stm32f10x_fwlib/src/stm32f10x_rcc.c **** 
1453:../stm32f10x_fwlib/src/stm32f10x_rcc.c ****   /* Perform Byte access to RCC_CIR[23:16] bits to clear the selected interrupt
1454:../stm32f10x_fwlib/src/stm32f10x_rcc.c ****      pending bits */
1455:../stm32f10x_fwlib/src/stm32f10x_rcc.c ****   *(__IO uint8_t *) CIR_BYTE3_ADDRESS = RCC_IT;
 1546              		.loc 1 1455 3 view .LVU402
 1547              		.loc 1 1455 39 is_stmt 0 view .LVU403
 1548 0000 014B     		ldr	r3, .L132
 1549 0002 9872     		strb	r0, [r3, #10]
1456:../stm32f10x_fwlib/src/stm32f10x_rcc.c **** }
 1550              		.loc 1 1456 1 view .LVU404
 1551 0004 7047     		bx	lr
 1552              	.L133:
 1553 0006 00BF     		.align	2
 1554              	.L132:
 1555 0008 00100240 		.word	1073876992
 1556              		.cfi_endproc
 1557              	.LFE60:
 1559              		.section	.data.ADCPrescTable,"aw"
 1560              		.align	2
 1561              		.set	.LANCHOR1,. + 0
 1564              	ADCPrescTable:
 1565 0000 02040608 		.ascii	"\002\004\006\010"
 1566              		.section	.data.APBAHBPrescTable,"aw"
 1567              		.align	2
 1568              		.set	.LANCHOR0,. + 0
 1571              	APBAHBPrescTable:
 1572 0000 00000000 		.ascii	"\000\000\000\000\001\002\003\004\001\002\003\004\006"
 1572      01020304 
ARM GAS  C:\Users\28470\AppData\Local\Temp\ccvYo0xZ.s 			page 54


 1572      01020304 
 1572      06
 1573 000d 070809   		.ascii	"\007\010\011"
 1574              		.text
 1575              	.Letext0:
 1576              		.file 2 "g:\\software\\vscode_for_stm32\\2024-q4-armgcc\\10 2021.10\\arm-none-eabi\\include\\machi
 1577              		.file 3 "g:\\software\\vscode_for_stm32\\2024-q4-armgcc\\10 2021.10\\arm-none-eabi\\include\\sys\\
 1578              		.file 4 "../user/stm32f10x.h"
 1579              		.file 5 "../stm32f10x_fwlib/inc/stm32f10x_rcc.h"
ARM GAS  C:\Users\28470\AppData\Local\Temp\ccvYo0xZ.s 			page 55

